MPASM  5.51                    PRACTICA 9.ASM   4-8-2018  18:46:13         PAGE  1


LOC  OBJECT CODE     LINE SOURCE TEXT
  VALUE

                      00001 
                      00002     include<P16f877A.inc>
                      00001         LIST
                      00002 
                      00003 ;==========================================================================
                      00004 ;  MPASM PIC16F877A processor include
                      00005 ; 
                      00006 ;  (c) Copyright 1999-2013 Microchip Technology, All rights reserved
                      00007 ;==========================================================================
                      00008 
                      00566         LIST
                      00003 
2007   3F71           00004  __CONFIG _FOSC_XT & _WDTE_OFF & _PWRTE_ON & _BOREN_ON & _LVP_OFF & _CPD_OFF & _WRT_OFF & _CP_OFF
                      00005     ;Declaración de VARIABLES
                      00006 
                      00007     ;Guarda el número de tecla pulsada
                      00008 #DEFINE BANDERA_CONTRA 0X40,0
                      00009 #DEFINE BANDERA_MENU1 0X41,0
                      00010 #DEFINE BANDERA_MENU2 0X42,0
                      00011 #DEFINE BANDERA_USER_1 0X43,0
                      00012 #DEFINE BANDERA_USER_2 0X44,0
                      00013 #DEFINE BANDERA_TECLEA_1 0X45,0
                      00014 #DEFINE BANDERA_TECLEA_2 0X46,0
                      00015 #DEFINE BANDERA_CAMBIO_1 0X47,0
                      00016 #DEFINE BANDERA_CAMBIO_2 0X48,0
                      00017 #DEFINE BANDERA_ADMIN    0X49,0
                      00018 #DEFINE BANDERA_TECLEA_ADMIN    0X49,1
                      00019 #DEFINE BANDERA_OPCION_USER1_CAMBIO 0X49,2
                      00020 #DEFINE BANDERA_OPCION_USER2_CAMBIO 0X49,3
  00000030            00021 numTecla equ h'30'
                      00022 
                      00023     ;Para el DELAY (Estabilización de la Señal ENABLE-LCD)
  00000031            00024 cont1 equ 0x31
  00000032            00025 cont2 equ 0x32
  00000033            00026 TEMP equ 0x33
  00000034            00027 TEMP2 equ 0x34
  00000035            00028 cont2M  EQU 0X35
  00000036            00029 cont1M  EQU 0X36
  00000050            00030 VAR1  EQU 0X50
  00000051            00031 VAR2  EQU 0X51
  00000052            00032 VAR3  EQU 0X52
  00000053            00033 VAR4  EQU 0X53
  00000054            00034 VAR1_1  EQU 0X54
  00000055            00035 VAR2_1  EQU 0X55
  00000056            00036 VAR3_1  EQU 0X56
  00000057            00037 VAR4_1  EQU 0X57
  00000058            00038 VAR1_2  EQU 0X58
  00000059            00039 VAR2_2  EQU 0X59
  0000005A            00040 VAR3_2  EQU 0X5A
  0000005B            00041 VAR4_2  EQU 0X5B
  0000005C            00042 CONT_BLOQUEA_USER1  EQU  0X5C
  0000005D            00043 CONT_BLOQUEA_USER2  EQU  0X5D
                      00044      ;Contador de caractéres
MPASM  5.51                    PRACTICA 9.ASM   4-8-2018  18:46:13         PAGE  2


LOC  OBJECT CODE     LINE SOURCE TEXT
  VALUE

  00000033            00045 caracter equ h'33'
                      00046 
0000                  00047      org 0h                ;Vector de RESET
0000   2817           00048      goto INICIO           ;Etiqueta de inico
0005                  00049      org 05h               ;Inicio del programa
                      00050 
                      00051 
                      00052 
0005                  00053 CONV_TECLA
0005   0782           00054      addwf PCL,1
0006   0000           00055      nop                  ;Linea 0 (no se utiliza)
0007   2C20           00056      goto   UNO
0008   2C31           00057      goto   DOS
0009   2C42           00058      goto   TRES
000A   2C8F           00059      goto   AA
000B   2C4D           00060      goto   CUATRO
000C   2C58           00061      goto   CINCO
000D   2C63           00062      goto   SEIS
000E   2C95           00063      goto   BB
000F   2C6E           00064      goto   SIETE
0010   2C79           00065      goto   OCHO
0011   2C84           00066      goto   NUEVE
0012   2C9B           00067      goto   CC
0013   2CAD           00068      goto   FF
0014   2C13           00069      goto   CERO
0015   2CA7           00070      goto   EE
0016   2CA1           00071      goto   DD
                      00072 
0017                  00073 INICIO
0017   0186           00074      clrf PORTB            ; Limpia PORTB
0018   0187           00075      clrf PORTC            ; Limpia PORTC
0019   0188           00076      clrf PORTD            ; Limpia PORTD
001A   1683           00077      bsf STATUS,RP0        ; Selecciona banco 1
001B   3006           00078      movlw  0x06
Message[302]: Register in operand not in bank 0.  Ensure that bank bits are correct.
001C   009F           00079      movwf  ADCON1
001D   0185           00080      clrf   PORTA
001E   30F0           00081      movlw 0xF0            ; PortB0-3 Salidas
Message[302]: Register in operand not in bank 0.  Ensure that bank bits are correct.
001F   0086           00082      movwf TRISB           ; PortB4-7 Entradas
Message[302]: Register in operand not in bank 0.  Ensure that bank bits are correct.
0020   0187           00083      clrf TRISC            ; PortC0-1 Salidas
Message[302]: Register in operand not in bank 0.  Ensure that bank bits are correct.
0021   0188           00084      clrf TRISD            ; PortD0-7 Salidas
Message[302]: Register in operand not in bank 0.  Ensure that bank bits are correct.
0022   1381           00085      bcf OPTION_REG,7      ; Habilita Resistencias de
                      00086                            ; polarización en entradas
0023   1283           00087      bcf STATUS,RP0        ; Selecciona  banco 0
0024   01B3           00088      clrf   TEMP
0025   3020           00089      movlw  0x20
0026   0084           00090      movwf  FSR
0027   1040           00091      bcf    BANDERA_CONTRA
0028   1441           00092      bsf    BANDERA_MENU1
MPASM  5.51                    PRACTICA 9.ASM   4-8-2018  18:46:13         PAGE  3


LOC  OBJECT CODE     LINE SOURCE TEXT
  VALUE

0029   1042           00093      bcf    BANDERA_MENU2
002A   1045           00094      bcf    BANDERA_TECLEA_1
002B   1046           00095      bcf    BANDERA_TECLEA_2
002C   1047           00096      BCF    BANDERA_CAMBIO_1
002D   1048           00097      BCF    BANDERA_CAMBIO_2
                      00098 
002E   3001           00099    movlw   .1
002F   00D0           00100     movwf   VAR1
                      00101 
0030   3007           00102    movlw   .7
0031   00D1           00103     movwf   VAR2
                      00104 
0032   3008           00105    movlw   .8
0033   00D2           00106     movwf   VAR3
                      00107 
0034   3009           00108    movlw   .9
0035   00D3           00109     movwf   VAR4
0036   01DC           00110     clrf    CONT_BLOQUEA_USER1
0037   01DD           00111     clrf    CONT_BLOQUEA_USER2
                      00112 
                      00113      ;Inicio
0038                  00114 START
0038   01B3           00115      clrf caracter
0039   20CF           00116      call INICIA_LCD       ;Configura el LCD
003A   283C           00117      goto   ADMIN
Warning[207]: Found label after column 1. (REGRESA_MENU)
003B                  00118      REGRESA_MENU
003B   28F2           00119      goto NEW_SCAN         ;Comienza el SCAN del TECLADO
                      00120 
003C                  00121 ADMIN
003C   1007           00122             bcf     PORTC,0
003D   3001           00123             movlw   b'00000001'
003E   0088           00124             movwf   PORTD
003F   1487           00125             bsf     PORTC,1
0040   0000           00126             NOP
0041   1087           00127             bcf     PORTC,1
0042   20E9           00128             call     DELAY
                      00129 
0043   1042           00130    bcf    BANDERA_MENU2
0044   1041           00131     bcf    BANDERA_MENU1
0045   1043           00132     bcf     BANDERA_USER_1
0046   1044           00133     bcf     BANDERA_USER_2
0047   1045           00134     bcf    BANDERA_TECLEA_1
0048   1046           00135      bcf    BANDERA_TECLEA_2
0049   1047           00136      BCF    BANDERA_CAMBIO_1
004A   1048           00137       BCF    BANDERA_CAMBIO_2
004B   1449           00138       BSF   BANDERA_ADMIN
                      00139 
004C   01B3           00140      clrf   TEMP
004D   3020           00141      movlw  0x20
004E   0084           00142      movwf  FSR
004F   1040           00143      bcf    BANDERA_CONTRA
                      00144 
MPASM  5.51                    PRACTICA 9.ASM   4-8-2018  18:46:13         PAGE  4


LOC  OBJECT CODE     LINE SOURCE TEXT
  VALUE

                      00145 
0050   3041           00146      movlw  b'01000001' ;A
0051   0088           00147      movwf  PORTD
0052   20BF           00148      call   ENVIAMENU
                      00149 
0053   3044           00150      movlw  b'01000100' ;D
0054   0088           00151      movwf  PORTD
0055   20BF           00152      call   ENVIAMENU
                      00153 
0056   304D           00154      movlw  b'01001101' ;M
0057   0088           00155      movwf  PORTD
0058   20BF           00156      call   ENVIAMENU
                      00157 
0059   3049           00158      movlw  b'01001001' ;I
005A   0088           00159      movwf  PORTD
005B   20BF           00160      call   ENVIAMENU
                      00161 
005C   304E           00162      movlw  b'01001110' ;N
005D   0088           00163      movwf  PORTD
005E   20BF           00164      call   ENVIAMENU
                      00165 
005F   303A           00166      movlw  b'00111010' ;:
0060   0088           00167      movwf  PORTD
0061   20BF           00168      call   ENVIAMENU
                      00169 
0062   2132           00170      call   ASIGNA_VALORES_ADMIN
                      00171 
                      00172 
0063   283B           00173      goto   REGRESA_MENU
                      00174 ;**************************************************************************
                      00175 
0064                  00176 MENU
0064   1007           00177             bcf     PORTC,0
0065   3001           00178             movlw   b'00000001'
0066   0088           00179             movwf   PORTD
0067   1487           00180             bsf     PORTC,1
0068   0000           00181             NOP
0069   1087           00182             bcf     PORTC,1
006A   20E9           00183             call     DELAY
                      00184 
006B   01B3           00185      clrf   TEMP
006C   3020           00186      movlw  0x20
006D   0084           00187      movwf  FSR
006E   1040           00188      bcf    BANDERA_CONTRA
                      00189     ;clrf    numTecla
006F   1442           00190     bsf    BANDERA_MENU2
0070   1041           00191     bcf    BANDERA_MENU1
0071   1043           00192     bcf     BANDERA_USER_1
0072   1044           00193     bcf     BANDERA_USER_2
0073   1045           00194     bcf    BANDERA_TECLEA_1
0074   1046           00195      bcf    BANDERA_TECLEA_2
0075   1047           00196      BCF    BANDERA_CAMBIO_1
0076   1048           00197       BCF    BANDERA_CAMBIO_2
MPASM  5.51                    PRACTICA 9.ASM   4-8-2018  18:46:13         PAGE  5


LOC  OBJECT CODE     LINE SOURCE TEXT
  VALUE

                      00198 
0077   3041           00199      movlw  'A' ;A
0078   0088           00200      movwf  PORTD
0079   20BF           00201      call   ENVIAMENU
                      00202 
007A   3044           00203      movlw  'D' ;D
007B   0088           00204      movwf  PORTD
007C   20BF           00205      call   ENVIAMENU
                      00206 
007D   304D           00207      movlw  'M' ;M
007E   0088           00208      movwf  PORTD
007F   20BF           00209      call   ENVIAMENU
                      00210 
0080   3049           00211      movlw  'I' ;I
0081   0088           00212      movwf  PORTD
0082   20BF           00213      call   ENVIAMENU
                      00214 
0083   304E           00215      movlw  'N' ;N
0084   0088           00216      movwf  PORTD
0085   20BF           00217      call   ENVIAMENU
                      00218 
0086   303A           00219      movlw  ':' ;
0087   0088           00220      movwf  PORTD
0088   20BF           00221      call   ENVIAMENU
                      00222 
0089   3030           00223      movlw  '0' ;
008A   0088           00224      movwf  PORTD
008B   20BF           00225      call   ENVIAMENU
                      00226 
008C   3020           00227      movlw  ' ' ;U
008D   0088           00228      movwf  PORTD
008E   20BF           00229      call   ENVIAMENU
                      00230 
008F   3055           00231      movlw  'U' ;S
0090   0088           00232      movwf  PORTD
0091   20BF           00233      call   ENVIAMENU
                      00234 
0092   3053           00235      movlw  'S' ;U
0093   0088           00236      movwf  PORTD
0094   20BF           00237      call   ENVIAMENU
                      00238 
0095   3045           00239      movlw  'E' ;U
0096   0088           00240      movwf  PORTD
0097   20BF           00241      call   ENVIAMENU
                      00242 
0098   3052           00243      movlw  'R' ;U
0099   0088           00244      movwf  PORTD
009A   20BF           00245      call   ENVIAMENU
                      00246 
009B   303A           00247      movlw  ':' ;U
009C   0088           00248      movwf  PORTD
009D   20BF           00249      call   ENVIAMENU
                      00250 
MPASM  5.51                    PRACTICA 9.ASM   4-8-2018  18:46:13         PAGE  6


LOC  OBJECT CODE     LINE SOURCE TEXT
  VALUE

009E   3031           00251      movlw  '1' ;U
009F   0088           00252      movwf  PORTD
00A0   20BF           00253      call   ENVIAMENU
                      00254 
00A1   302D           00255      movlw  '-' ;U
00A2   0088           00256      movwf  PORTD
00A3   20BF           00257      call   ENVIAMENU
                      00258 
00A4   3032           00259      movlw  '2' ;U
00A5   0088           00260      movwf  PORTD
00A6   20BF           00261      call   ENVIAMENU
                      00262 
                      00263 ;******************CAMBIO DE LINEA
                      00264 
00A7   1007           00265     bcf     PORTC,RC0
00A8   30C0           00266     movlw   b'11000000'
00A9   0088           00267     movwf   PORTD
00AA   20B8           00268     call    ENVIABRINCO
                      00269 
00AB   3053           00270      movlw  'S' ;S
00AC   0088           00271      movwf  PORTD
00AD   20BF           00272      call   ENVIAMENU
                      00273 
00AE   3045           00274      movlw  'E' ;E
00AF   0088           00275      movwf  PORTD
00B0   20BF           00276      call   ENVIAMENU
                      00277 
00B1   304C           00278      movlw  'L' ;L
00B2   0088           00279      movwf  PORTD
00B3   20BF           00280      call   ENVIAMENU
                      00281 
00B4   303A           00282      movlw  ':'
00B5   0088           00283      movwf  PORTD
00B6   20BF           00284      call   ENVIAMENU
                      00285 
00B7   28F2           00286      goto   NEW_SCAN
                      00287 
                      00288 ;*******************************************************************************
                      00289 
00B8                  00290 ENVIABRINCO
00B8   1007           00291      bcf    PORTC,0
00B9   20BB           00292      call   COMANDOMENUBRINCO
00BA   0008           00293      return
                      00294 
00BB                  00295 COMANDOMENUBRINCO
00BB   1487           00296     bsf     PORTC,1
00BC   20C6           00297     call    DELAYMENU
00BD   1087           00298     bcf     PORTC,1
00BE   0008           00299     return
                      00300 
                      00301 
00BF                  00302 ENVIAMENU
00BF   1407           00303       bsf PORTC, 0          ; RS=1 MODO DATO
MPASM  5.51                    PRACTICA 9.ASM   4-8-2018  18:46:13         PAGE  7


LOC  OBJECT CODE     LINE SOURCE TEXT
  VALUE

00C0   20C2           00304       call COMANDOMENU        ; Se da de alta el comando
00C1   0008           00305       return
                      00306 
00C2                  00307 COMANDOMENU
00C2   1487           00308      bsf PORTC, 1          ; Pone la señal ENABLE en 1
00C3   20C6           00309      call   DELAYMENU ; Espera estabilizar la señal           ; Espera estabilizar la señal
00C4   1087           00310      bcf PORTC, 1          ; ENABLE=0          ; Espera estabilizar la señal
00C5   0008           00311      return
                      00312 
00C6                  00313 DELAYMENU
00C6   3014           00314      movlw .20
00C7   00B5           00315      movwf cont2M
00C8                  00316 loop1MENU
00C8   3014           00317      movlw .20
00C9   00B6           00318      movwf cont1M
                      00319 
00CA                  00320 loop2MENU
00CA   0BB6           00321      decfsz cont1M,1
00CB   28CA           00322      goto loop2MENU
00CC   0BB5           00323      decfsz cont2M,1
00CD   28C8           00324      goto loop1MENU
00CE   0008           00325      return
                      00326 
                      00327      ;Rutina para inicializar el lcd
00CF                  00328 INICIA_LCD
00CF   1007           00329      bcf PORTC,0           ; RS=0 MODO INSTRUCCION
00D0   3001           00330      movlw 0x01            ; 0x01 limpia la pantalla en el LCD
00D1   0088           00331      movwf PORTD
00D2   20DE           00332      call COMANDO          ; Se da de alta el comando
00D3   300C           00333      movlw 0x0C            ; Selecciona la primera línea
00D4   0088           00334      movwf PORTD
00D5   20DE           00335      call COMANDO          ; Se da de alta el comando
                      00336 
00D6   303C           00337      movlw 0x3C            ; Se configura el cursor
00D7   0088           00338      movwf PORTD
00D8   20DE           00339      call COMANDO          ; Se da de alta el comando
00D9   1407           00340      bsf PORTC, 0          ; Rs=1 MODO DATO
00DA   0008           00341      return
                      00342 
                      00343      ;Rutina para enviar un dato
00DB                  00344 ENVIA
00DB   1407           00345      bsf PORTC, 0          ; RS=1 MODO DATO
00DC   20DE           00346      call COMANDO          ; Se da de alta el comando
00DD   0008           00347      return
                      00348 
                      00349      ;Subrutina para enviar INST. ó DATOS
00DE                  00350 COMANDO
00DE   1487           00351      bsf PORTC, 1          ; Pone la señal ENABLE en 1
00DF   20E9           00352      call DELAY            ; Espera estabilizar la señal
00E0   20E9           00353      call DELAY            ; Espera estabilizar la señal
00E1   1087           00354      bcf PORTC, 1          ; ENABLE=0
00E2   20E9           00355      call DELAY            ; Espera estabilizar la señal
00E3   0008           00356      return
MPASM  5.51                    PRACTICA 9.ASM   4-8-2018  18:46:13         PAGE  8


LOC  OBJECT CODE     LINE SOURCE TEXT
  VALUE

                      00357 
                      00358      ;Configuración Lineal 2 LCD
00E4                  00359 LINEA2
00E4   1007           00360      bcf PORTC,0           ; RS=0 MODO INSTRUCCION
00E5   30C0           00361      movlw 0xC0            ; Selecciona línea 2 pantalla en el LCD
00E6   0088           00362      movwf PORTD
00E7   20DE           00363      call COMANDO          ; Se da de alta el comando
00E8   28F2           00364      goto NEW_SCAN
                      00365 
                      00366      ; Rutina de retardo
                      00367      ; Para estabilizar la señal de ENABLE
00E9                  00368 DELAY
00E9   30FF           00369      movlw 0xFF
00EA   00B2           00370      movwf cont2
00EB                  00371 loop1
00EB   30FF           00372      movlw 0xFF
00EC   00B1           00373      movwf cont1
                      00374 
00ED                  00375 loop2
00ED   0BB1           00376      decfsz cont1,1
00EE   28ED           00377      goto loop2
00EF   0BB2           00378      decfsz cont2,1
00F0   28EB           00379      goto loop1
00F1   0008           00380      return
                      00381 
                      00382      ;Escaneo del teclado
00F2                  00383 NEW_SCAN
00F2   01B0           00384      clrf numTecla         ; Borra el contenido de numTecla
00F3   0AB0           00385      incf numTecla,1       ; Inicializa numTecla
00F4   300E           00386      movlw b'00001110'     ; Pone a 0 la primera Fila ( PB0 )
00F5   0086           00387      movwf PORTB
00F6   0000           00388      Nop                   ; Espera estabilizar la señal
                      00389 
                      00390      ;Rutina que verifíca el estado de las columnas
00F7                  00391 CHK_COL
                      00392      ;Verifica si se ha presionado alguna tecla
00F7   1E06           00393      btfss PORTB,4         ; Columna 1=0?
00F8   290A           00394      goto TECLA_ON         ; Sale si se ha pulsado una tecla
00F9   0AB0           00395      incf numTecla,1       ; Incrementa número de tecla
                      00396 
00FA   1E86           00397      btfss PORTB,5         ; Columna 2=0?
00FB   290A           00398      goto TECLA_ON         ; Sale si se ha pulsado una tecla
00FC   0AB0           00399      incf numTecla,1       ; Incrementa número de tecla
                      00400 
00FD   1F06           00401      btfss PORTB,6         ; Columna 3=0?
00FE   290A           00402      goto TECLA_ON         ; Sale si se ha pulsado una tecla
00FF   0AB0           00403      incf numTecla,1       ; Incrementa número de tecla
                      00404 
0100   1F86           00405      btfss PORTB,7         ; Columna 4=0?
0101   290A           00406      goto TECLA_ON         ; Sale si se ha pulsado una tecla
0102   0AB0           00407      incf numTecla,1       ; Incrementa número de tecla
                      00408 
                      00409      ;Verifica si se ha recorrido todo el teclado
MPASM  5.51                    PRACTICA 9.ASM   4-8-2018  18:46:13         PAGE  9


LOC  OBJECT CODE     LINE SOURCE TEXT
  VALUE

0103   3011           00410      movlw d'17'           ; Número total de teclas + 1
0104   0630           00411      xorwf numTecla,w      ; Realiza d'17' XOR numTecla
0105   1903           00412      btfsc STATUS,Z        ; Verifica el estado de Z
0106   28F2           00413      goto NEW_SCAN         ; Z=1?, Son iguales (full Scan)
                      00414                            ; Z=0?, Son diferentes,
0107                  00415 NEXT_COL
0107   1403           00416      bsf STATUS,C    ; Enciende el carry para poner en "1" la FILA
                      00417                      ; recorrida
0108   0D86           00418      rlf PORTB,1     ; Realiza corrimiento a la izquierda, pone a
                      00419                      ; cero la siguiente FILA
0109   28F7           00420      goto CHK_COL    ; Escanea la sig. COLUMNA
                      00421 
                      00422      ;Rutina que procesa la tecla capturada
010A                  00423 TECLA_ON
                      00424 
                      00425      ;Rutinas que esperan a que se deje de presionar la tecla
                      00426      ;Esto para evitar ECO
010A                  00427 Espera1
010A   1E06           00428      btfss   PORTB,4      ;Si no se suelta la tecla de la COL 1
010B   290A           00429      goto    Espera1      ;vuelve a esperar.
010C                  00430 Espera2
010C   1E86           00431      btfss   PORTB,5      ;Si no se suelta la tecla de la COL 2
010D   290C           00432      goto    Espera2      ;vuelve a esperar.
010E                  00433 Espera3
010E   1F06           00434      btfss   PORTB,6      ;Si no se suelta la tecla de la COL 3
010F   290E           00435      goto    Espera3      ;vuelve a esperar.
0110                  00436 Espera4
0110   1F86           00437      btfss   PORTB,7      ;Si no se suelta la tecla de la COL 4
0111   2910           00438      goto    Espera4      ;vuelve a esperar.
                      00439 
                      00440      ;Una vez que dejó de presionar la tecla
                      00441 
0112                  00442 REGRESO_ASIGNACION
0112   0830           00443     movf numTecla,w      ; Pone en W el valor de numTecla
0113   2805           00444      goto CONV_TECLA      ; Llama a la rutina de conversión
                      00445 
0114                  00446 REGRESO_CONV_TECLA
                      00447 
0114   1840           00448      btfsc  BANDERA_CONTRA
0115   2A99           00449      goto   CONTRASEÑA_CORRECTA
                      00450 
                      00451 
                      00452 
0116   0AB3           00453      incf caracter,1      ; Incrementa contador de caracteres
                      00454 
                      00455      ;Verifica si se ha llenado la línea 1 de caracteres
0117   3010           00456      movlw d'16'           ; Nómero de caracteres
0118   0633           00457      xorwf caracter,w      ; Realiza d'16' XOR caracter
0119   1903           00458      btfsc STATUS,Z        ; Verifica el estado de Z
011A   28E4           00459      goto LINEA2           ; z=1, Línea 1 llena
                      00460      ;Verifica si se ha llenado la línea 2 de caracteres
011B   3020           00461      movlw d'32'           ; NË?mero de teclas
011C   0633           00462      xorwf caracter,w      ; Realiza d'32' XOR caracter
MPASM  5.51                    PRACTICA 9.ASM   4-8-2018  18:46:13         PAGE 10


LOC  OBJECT CODE     LINE SOURCE TEXT
  VALUE

011D   1903           00463      btfsc STATUS,Z        ; Verifica el estado de Z
011E   2838           00464      goto START            ; z=1, Línea 2 llena, reinicia
011F   28F2           00465      goto NEW_SCAN         ; Realiza nuevo scan
                      00466 
                      00467      ;Rutina de conversión que retorna el valor en ASCII de
                      00468      ;numTecla en W
                      00469 ;***********************************************************************+
0120                  00470 ASIGNA_VALORES_1
0120   0820           00471     movf    0X20,W   ;PRIMER DIGITO DE LA CLAVE
0121   00D4           00472     movwf   VAR1_1
                      00473 
0122   0821           00474    movf    0X21,W  ;SEGUDNO DIGITO DE LA CLAVE
0123   00D5           00475     movwf   VAR2_1
                      00476 
0124   0822           00477    movf    0X22,W
0125   00D6           00478     movwf   VAR3_1
                      00479 
0126   0823           00480    movf    0X23,W
0127   00D7           00481     movwf   VAR4_1
                      00482 
0128   2912           00483     goto    REGRESO_ASIGNACION
                      00484 
0129                  00485 ASIGNA_VALORES_2
0129   0820           00486     movf    0X20,W     ;PRIMER DIGITO DE LA CLAVE
012A   00D8           00487     movwf   VAR1_2
                      00488 
012B   0821           00489    movf    0X21,W    ;SEGUDNO DIGITO DE LA CLAVE
012C   00D9           00490     movwf   VAR2_2
                      00491 
012D   0822           00492    movf    0X22,W    ;TERCERO DIGITO DE LA CLAVE
012E   00DA           00493     movwf   VAR3_2
                      00494 
012F   0823           00495    movf    0X23,W
0130   00DB           00496     movwf   VAR4_2
                      00497 
0131   2912           00498     goto    REGRESO_ASIGNACION
                      00499 
Warning[207]: Found label after column 1. (ASIGNA_VALORES_ADMIN)
0132                  00500  ASIGNA_VALORES_ADMIN
0132   3001           00501  movlw   .1
0133   00D0           00502     movwf   VAR1
                      00503 
0134   3007           00504    movlw   .7
0135   00D1           00505     movwf   VAR2
                      00506 
0136   3008           00507    movlw   .8
0137   00D2           00508     movwf   VAR3
                      00509 
0138   3009           00510    movlw   .9
0139   00D3           00511     movwf   VAR4
                      00512 
013A   0008           00513   return
                      00514 
MPASM  5.51                    PRACTICA 9.ASM   4-8-2018  18:46:13         PAGE 11


LOC  OBJECT CODE     LINE SOURCE TEXT
  VALUE

                      00515 
                      00516 
                      00517 ;**********************************************************************************
013B                  00518 OPCION_USER_1
                      00519 
013B   1007           00520      bcf     PORTC,0
013C   3001           00521             movlw   b'00000001'
013D   0088           00522             movwf   PORTD
013E   1487           00523             bsf     PORTC,1
013F   0000           00524             NOP
0140   1087           00525             bcf     PORTC,1
0141   20E9           00526             call     DELAY
                      00527 
0142   01B3           00528      clrf   TEMP
0143   3020           00529      movlw  0x20
0144   0084           00530      movwf  FSR
0145   1040           00531     bcf    BANDERA_CONTRA
0146   01B0           00532     clrf    numTecla
0147   1042           00533     bcf    BANDERA_MENU2
0148   1041           00534     bcf    BANDERA_MENU1
0149   1443           00535     bsf     BANDERA_USER_1
014A   1044           00536     bcf     BANDERA_USER_2
014B   1045           00537     bcf    BANDERA_TECLEA_1
014C   1046           00538     bcf    BANDERA_TECLEA_2
014D   1047           00539     BCF    BANDERA_CAMBIO_1
014E   1048           00540     BCF    BANDERA_CAMBIO_2
014F   1049           00541     bcf    BANDERA_ADMIN
                      00542 
0150   3055           00543      movlw  'U' ;A
0151   0088           00544      movwf  PORTD
0152   20BF           00545      call   ENVIAMENU
                      00546 
0153   3053           00547      movlw  'S' ;D
0154   0088           00548      movwf  PORTD
0155   20BF           00549      call   ENVIAMENU
                      00550 
0156   3045           00551      movlw  'E' ;M
0157   0088           00552      movwf  PORTD
0158   20BF           00553      call   ENVIAMENU
                      00554 
0159   3052           00555      movlw  'R' ;I
015A   0088           00556      movwf  PORTD
015B   20BF           00557      call   ENVIAMENU
                      00558 
015C   3031           00559      movlw  '1' ;N
015D   0088           00560      movwf  PORTD
015E   20BF           00561      call   ENVIAMENU
                      00562 
015F   3020           00563      movlw  ' ' ;
0160   0088           00564      movwf  PORTD
0161   20BF           00565      call   ENVIAMENU
                      00566 
0162   304F           00567      movlw  'O' ;
MPASM  5.51                    PRACTICA 9.ASM   4-8-2018  18:46:13         PAGE 12


LOC  OBJECT CODE     LINE SOURCE TEXT
  VALUE

0163   0088           00568      movwf  PORTD
0164   20BF           00569      call   ENVIAMENU
                      00570 
0165   3050           00571      movlw  'P' ;U
0166   0088           00572      movwf  PORTD
0167   20BF           00573      call   ENVIAMENU
                      00574 
0168   3028           00575      movlw  '(' ;S
0169   0088           00576      movwf  PORTD
016A   20BF           00577      call   ENVIAMENU
                      00578 
016B   3031           00579      movlw  '1' ;U
016C   0088           00580      movwf  PORTD
016D   20BF           00581      call   ENVIAMENU
                      00582 
016E   302D           00583      movlw  '-' ;U
016F   0088           00584      movwf  PORTD
0170   20BF           00585      call   ENVIAMENU
                      00586 
0171   3032           00587      movlw  '2' ;U
0172   0088           00588      movwf  PORTD
0173   20BF           00589      call   ENVIAMENU
                      00590 
0174   3029           00591      movlw  ')' ;U
0175   0088           00592      movwf  PORTD
0176   20BF           00593      call   ENVIAMENU
                      00594 
                      00595 ;******************CAMBIO DE LINEA
                      00596 
0177   1007           00597     bcf     PORTC,RC0
0178   30C0           00598     movlw   b'11000000'
0179   0088           00599     movwf   PORTD
017A   20B8           00600     call    ENVIABRINCO
                      00601 
017B   3053           00602      movlw  'S' ;S
017C   0088           00603      movwf  PORTD
017D   20BF           00604      call   ENVIAMENU
                      00605 
017E   3045           00606      movlw  'E' ;E
017F   0088           00607      movwf  PORTD
0180   20BF           00608      call   ENVIAMENU
                      00609 
0181   304C           00610      movlw  'L' ;L
0182   0088           00611      movwf  PORTD
0183   20BF           00612      call   ENVIAMENU
                      00613 
0184   303A           00614      movlw  ':'
0185   0088           00615      movwf  PORTD
0186   20BF           00616      call   ENVIAMENU
                      00617 
0187   283B           00618     goto    REGRESA_MENU
                      00619 
                      00620 ;*******************************************************************************
MPASM  5.51                    PRACTICA 9.ASM   4-8-2018  18:46:13         PAGE 13


LOC  OBJECT CODE     LINE SOURCE TEXT
  VALUE

0188                  00621 OPCION_USER_2
                      00622 
0188   1007           00623             bcf     PORTC,0
0189   3001           00624             movlw   b'00000001'
018A   0088           00625             movwf   PORTD
018B   1487           00626             bsf     PORTC,1
018C   0000           00627             NOP
018D   1087           00628             bcf     PORTC,1
018E   20E9           00629             call     DELAY
                      00630 
018F   01B3           00631      clrf   TEMP
0190   3020           00632      movlw  0x20
0191   0084           00633      movwf  FSR
0192   1040           00634      bcf    BANDERA_CONTRA
0193   01B0           00635     clrf    numTecla
0194   1042           00636     bcf    BANDERA_MENU2
0195   1041           00637     bcf    BANDERA_MENU1
0196   1043           00638     bcf     BANDERA_USER_1
0197   1444           00639     bsf     BANDERA_USER_2
0198   1045           00640      bcf    BANDERA_TECLEA_1
0199   1046           00641      bcf    BANDERA_TECLEA_2
019A   1047           00642      BCF    BANDERA_CAMBIO_1
019B   1048           00643      BCF    BANDERA_CAMBIO_2
019C   1049           00644      bcf    BANDERA_ADMIN
                      00645 
019D   3055           00646      movlw  'U' ;A
019E   0088           00647      movwf  PORTD
019F   20BF           00648      call   ENVIAMENU
                      00649 
01A0   3053           00650      movlw  'S' ;D
01A1   0088           00651      movwf  PORTD
01A2   20BF           00652      call   ENVIAMENU
                      00653 
01A3   3045           00654      movlw  'E' ;M
01A4   0088           00655      movwf  PORTD
01A5   20BF           00656      call   ENVIAMENU
                      00657 
01A6   3052           00658      movlw  'R' ;I
01A7   0088           00659      movwf  PORTD
01A8   20BF           00660      call   ENVIAMENU
                      00661 
01A9   3032           00662      movlw  '2' ;N
01AA   0088           00663      movwf  PORTD
01AB   20BF           00664      call   ENVIAMENU
                      00665 
01AC   3020           00666      movlw  ' ' ;
01AD   0088           00667      movwf  PORTD
01AE   20BF           00668      call   ENVIAMENU
                      00669 
01AF   304F           00670      movlw  'O' ;
01B0   0088           00671      movwf  PORTD
01B1   20BF           00672      call   ENVIAMENU
                      00673 
MPASM  5.51                    PRACTICA 9.ASM   4-8-2018  18:46:13         PAGE 14


LOC  OBJECT CODE     LINE SOURCE TEXT
  VALUE

01B2   3050           00674      movlw  'P' ;U
01B3   0088           00675      movwf  PORTD
01B4   20BF           00676      call   ENVIAMENU
                      00677 
01B5   3028           00678      movlw  '(' ;S
01B6   0088           00679      movwf  PORTD
01B7   20BF           00680      call   ENVIAMENU
                      00681 
01B8   3031           00682      movlw  '1' ;U
01B9   0088           00683      movwf  PORTD
01BA   20BF           00684      call   ENVIAMENU
                      00685 
01BB   302D           00686      movlw  '-' ;U
01BC   0088           00687      movwf  PORTD
01BD   20BF           00688      call   ENVIAMENU
                      00689 
01BE   3032           00690      movlw  '2' ;U
01BF   0088           00691      movwf  PORTD
01C0   20BF           00692      call   ENVIAMENU
                      00693 
01C1   3029           00694      movlw  ')' ;U
01C2   0088           00695      movwf  PORTD
01C3   20BF           00696      call   ENVIAMENU
                      00697 
                      00698 ;******************CAMBIO DE LINEA
                      00699 
01C4   1007           00700     bcf     PORTC,RC0
01C5   30C0           00701     movlw   b'11000000'
01C6   0088           00702     movwf   PORTD
01C7   20B8           00703     call    ENVIABRINCO
                      00704 
01C8   3053           00705      movlw  'S' ;S
01C9   0088           00706      movwf  PORTD
01CA   20BF           00707      call   ENVIAMENU
                      00708 
01CB   3045           00709      movlw  'E' ;E
01CC   0088           00710      movwf  PORTD
01CD   20BF           00711      call   ENVIAMENU
                      00712 
01CE   304C           00713      movlw  'L' ;L
01CF   0088           00714      movwf  PORTD
01D0   20BF           00715      call   ENVIAMENU
                      00716 
01D1   303A           00717      movlw  ':'
01D2   0088           00718      movwf  PORTD
01D3   20BF           00719      call   ENVIAMENU
                      00720 
                      00721 
                      00722 
                      00723 
01D4   283B           00724     goto    REGRESA_MENU
                      00725 
                      00726 
MPASM  5.51                    PRACTICA 9.ASM   4-8-2018  18:46:13         PAGE 15


LOC  OBJECT CODE     LINE SOURCE TEXT
  VALUE

                      00727 
                      00728 ;*********************************************************************
01D5                  00729 OPCION_USER1_CAMBIO
                      00730 
01D5   1549           00731             bsf     BANDERA_OPCION_USER1_CAMBIO
01D6   1949           00732             btfsc   BANDERA_OPCION_USER1_CAMBIO
01D7   283C           00733             goto    ADMIN
                      00734 
01D8                  00735 OPCION_USER1_CAMBIO2
01D8   1149           00736             bcf     BANDERA_OPCION_USER1_CAMBIO
                      00737 
01D9   1007           00738             bcf     PORTC,0
01DA   3001           00739             movlw   b'00000001'
01DB   0088           00740             movwf   PORTD
01DC   1487           00741             bsf     PORTC,1
01DD   0000           00742             NOP
01DE   1087           00743             bcf     PORTC,1
01DF   20E9           00744             call     DELAY
                      00745 
01E0   01B3           00746         clrf   TEMP
01E1   3020           00747         movlw  0x20
01E2   0084           00748         movwf  FSR
01E3   1040           00749         bcf    BANDERA_CONTRA
01E4   01B0           00750         clrf    numTecla
01E5   1042           00751         bcf    BANDERA_MENU2
01E6   1041           00752         bcf    BANDERA_MENU1
01E7   1043           00753         bcf     BANDERA_USER_1
01E8   1044           00754         bcf     BANDERA_USER_2
01E9   1045           00755         bcf    BANDERA_TECLEA_1
01EA   1046           00756         bcf    BANDERA_TECLEA_2
01EB   1447           00757         BSF    BANDERA_CAMBIO_1
01EC   1048           00758         BCF    BANDERA_CAMBIO_2
01ED   1049           00759         bcf    BANDERA_ADMIN
                      00760 
01EE   304E           00761      movlw  'N' ;A
01EF   0088           00762      movwf  PORTD
01F0   20BF           00763      call   ENVIAMENU
                      00764 
01F1   3055           00765      movlw  'U' ;D
01F2   0088           00766      movwf  PORTD
01F3   20BF           00767      call   ENVIAMENU
                      00768 
01F4   3045           00769      movlw  'E' ;M
01F5   0088           00770      movwf  PORTD
01F6   20BF           00771      call   ENVIAMENU
                      00772 
01F7   3056           00773      movlw  'V' ;I
01F8   0088           00774      movwf  PORTD
01F9   20BF           00775      call   ENVIAMENU
                      00776 
01FA   3041           00777      movlw  'A' ;N
01FB   0088           00778      movwf  PORTD
01FC   20BF           00779      call   ENVIAMENU
MPASM  5.51                    PRACTICA 9.ASM   4-8-2018  18:46:13         PAGE 16


LOC  OBJECT CODE     LINE SOURCE TEXT
  VALUE

                      00780 
01FD   303A           00781      movlw  ':' ;
01FE   0088           00782      movwf  PORTD
01FF   20BF           00783      call   ENVIAMENU
                      00784 
0200   283B           00785      goto    REGRESA_MENU
                      00786 
                      00787 ;******************************************************************************
0201                  00788 OPCION_USER2_CAMBIO
                      00789 
0201   15C9           00790             bsf     BANDERA_OPCION_USER2_CAMBIO
0202   19C9           00791             btfsc   BANDERA_OPCION_USER2_CAMBIO
0203   283C           00792             goto    ADMIN
                      00793 
0204                  00794 OPCION_USER2_CAMBIO2
0204   11C9           00795             bcf     BANDERA_OPCION_USER2_CAMBIO
                      00796 
0205   1007           00797             bcf     PORTC,0
0206   3001           00798             movlw   b'00000001'
0207   0088           00799             movwf   PORTD
0208   1487           00800             bsf     PORTC,1
0209   0000           00801             NOP
020A   1087           00802             bcf     PORTC,1
020B   20E9           00803             call     DELAY
                      00804 
020C   01B3           00805             clrf   TEMP
020D   3020           00806             movlw  0x20
020E   0084           00807             movwf  FSR
020F   1040           00808             bcf    BANDERA_CONTRA
0210   01B0           00809             clrf    numTecla
0211   1042           00810             bcf    BANDERA_MENU2
0212   1041           00811             bcf    BANDERA_MENU1
0213   1043           00812             bcf     BANDERA_USER_1
0214   1044           00813             bcf     BANDERA_USER_2
0215   1045           00814             bcf    BANDERA_TECLEA_1
0216   1046           00815             bcf    BANDERA_TECLEA_2
0217   1047           00816             BCF    BANDERA_CAMBIO_1
0218   1448           00817             BSF    BANDERA_CAMBIO_2
0219   1049           00818             bcf    BANDERA_ADMIN
                      00819 
021A   304E           00820      movlw  'N' ;A
021B   0088           00821      movwf  PORTD
021C   20BF           00822      call   ENVIAMENU
                      00823 
021D   3055           00824      movlw  'U' ;D
021E   0088           00825      movwf  PORTD
021F   20BF           00826      call   ENVIAMENU
                      00827 
0220   3045           00828      movlw  'E' ;M
0221   0088           00829      movwf  PORTD
0222   20BF           00830      call   ENVIAMENU
                      00831 
0223   3056           00832      movlw  'V' ;I
MPASM  5.51                    PRACTICA 9.ASM   4-8-2018  18:46:13         PAGE 17


LOC  OBJECT CODE     LINE SOURCE TEXT
  VALUE

0224   0088           00833      movwf  PORTD
0225   20BF           00834      call   ENVIAMENU
                      00835 
0226   3041           00836      movlw  'A' ;N
0227   0088           00837      movwf  PORTD
0228   20BF           00838      call   ENVIAMENU
                      00839 
0229   303A           00840      movlw  ':' ;
022A   0088           00841      movwf  PORTD
022B   20BF           00842      call   ENVIAMENU
                      00843 
                      00844 
022C   283B           00845         goto    REGRESA_MENU
                      00846 
                      00847 ;**************************************************************************
022D                  00848 OPCION_USER1_TECLEA
                      00849 
                      00850 
                      00851 
022D   1103           00852             bcf     STATUS,Z
022E   3003           00853             movlw   .3
022F   025C           00854             subwf   CONT_BLOQUEA_USER1,W
0230   1903           00855             btfsc   STATUS,Z
0231   2B26           00856             goto    BLOQUEAR
                      00857 
0232   1007           00858             bcf     PORTC,0
0233   3001           00859             movlw   b'00000001'
0234   0088           00860             movwf   PORTD
0235   1487           00861             bsf     PORTC,1
0236   0000           00862             NOP
0237   1087           00863             bcf     PORTC,1
0238   20E9           00864             call     DELAY
                      00865 
0239   01B3           00866      clrf   TEMP
023A   3020           00867      movlw  0x20
023B   0084           00868      movwf  FSR
023C   1040           00869      bcf    BANDERA_CONTRA
023D   01B0           00870     clrf    numTecla
023E   1042           00871     bcf    BANDERA_MENU2
023F   1041           00872     bcf    BANDERA_MENU1
0240   1043           00873     bcf     BANDERA_USER_1
0241   1044           00874     bcf     BANDERA_USER_2
0242   1445           00875      bsf    BANDERA_TECLEA_1
0243   1046           00876      bcf    BANDERA_TECLEA_2
0244   1047           00877      BcF    BANDERA_CAMBIO_1
0245   1048           00878      BCF    BANDERA_CAMBIO_2
0246   1049           00879      bcf    BANDERA_ADMIN
0247   3054           00880      movlw  'T' ;A
0248   0088           00881      movwf  PORTD
0249   20BF           00882      call   ENVIAMENU
                      00883 
024A   3045           00884      movlw  'E' ;D
024B   0088           00885      movwf  PORTD
MPASM  5.51                    PRACTICA 9.ASM   4-8-2018  18:46:13         PAGE 18


LOC  OBJECT CODE     LINE SOURCE TEXT
  VALUE

024C   20BF           00886      call   ENVIAMENU
                      00887 
024D   3043           00888      movlw  'C' ;M
024E   0088           00889      movwf  PORTD
024F   20BF           00890      call   ENVIAMENU
                      00891 
0250   304C           00892      movlw  'L' ;I
0251   0088           00893      movwf  PORTD
0252   20BF           00894      call   ENVIAMENU
                      00895 
0253   3045           00896      movlw  'E' ;N
0254   0088           00897      movwf  PORTD
0255   20BF           00898      call   ENVIAMENU
                      00899 
0256   3041           00900      movlw  'A' ;
0257   0088           00901      movwf  PORTD
0258   20BF           00902      call   ENVIAMENU
                      00903 
0259   303A           00904      movlw  ':' ;
025A   0088           00905      movwf  PORTD
025B   20BF           00906      call   ENVIAMENU
025C   283B           00907         goto    REGRESA_MENU
                      00908 
                      00909 ;******************************************************************************
                      00910 
025D                  00911 OPCION_USER2_TECLEA
                      00912 
                      00913 
025D   1103           00914             bcf     STATUS,Z
025E   3003           00915             movlw   .3
025F   025D           00916             subwf   CONT_BLOQUEA_USER2,W
0260   1903           00917             btfsc   STATUS,Z
0261   2B26           00918             goto    BLOQUEAR
                      00919 
                      00920 
0262   1007           00921             bcf     PORTC,0
0263   3001           00922             movlw   b'00000001'
0264   0088           00923             movwf   PORTD
0265   1487           00924             bsf     PORTC,1
0266   0000           00925             NOP
0267   1087           00926             bcf     PORTC,1
0268   20E9           00927             call     DELAY
                      00928 
0269   01B3           00929      clrf   TEMP
026A   3020           00930      movlw  0x20
026B   0084           00931      movwf  FSR
026C   1040           00932      bcf    BANDERA_CONTRA
026D   01B0           00933     clrf    numTecla
026E   1042           00934     bcf    BANDERA_MENU2
026F   1041           00935     bcf    BANDERA_MENU1
0270   1043           00936     bcf     BANDERA_USER_1
0271   1044           00937     bcf     BANDERA_USER_2
0272   1045           00938      bcf    BANDERA_TECLEA_1
MPASM  5.51                    PRACTICA 9.ASM   4-8-2018  18:46:13         PAGE 19


LOC  OBJECT CODE     LINE SOURCE TEXT
  VALUE

0273   1446           00939      bsf    BANDERA_TECLEA_2
0274   1047           00940     BcF    BANDERA_CAMBIO_1
0275   1048           00941      BCF    BANDERA_CAMBIO_2
0276   1049           00942       bcf    BANDERA_ADMIN
                      00943 
0277   3054           00944      movlw  'T' ;A
0278   0088           00945      movwf  PORTD
0279   20BF           00946      call   ENVIAMENU
                      00947 
027A   3045           00948      movlw  'E' ;D
027B   0088           00949      movwf  PORTD
027C   20BF           00950      call   ENVIAMENU
                      00951 
027D   3043           00952      movlw  'C' ;M
027E   0088           00953      movwf  PORTD
027F   20BF           00954      call   ENVIAMENU
                      00955 
0280   304C           00956      movlw  'L' ;I
0281   0088           00957      movwf  PORTD
0282   20BF           00958      call   ENVIAMENU
                      00959 
0283   3045           00960      movlw  'E' ;N
0284   0088           00961      movwf  PORTD
0285   20BF           00962      call   ENVIAMENU
                      00963 
0286   3041           00964      movlw  'A' ;
0287   0088           00965      movwf  PORTD
0288   20BF           00966      call   ENVIAMENU
                      00967 
0289   303A           00968      movlw  ':' ;
028A   0088           00969      movwf  PORTD
028B   20BF           00970      call   ENVIAMENU
                      00971 
028C   283B           00972       goto    REGRESA_MENU
                      00973 
                      00974 ;***************************************************************************
                      00975 
028D                  00976 CONTRASEÑA_INCORRECTA
028D   3069           00977      movlw   'i'
028E   0088           00978      movwf PORTD          ; Manda la conversión al puerto D
028F   20DB           00979      call ENVIA           ; Manda Datos al LCD
                      00980 
0290   20E9           00981      call   DELAY
                      00982 
0291   1042           00983      bcf    BANDERA_MENU2
0292   1441           00984      bsf    BANDERA_MENU1
                      00985 
0293   1847           00986      btfsc  BANDERA_CAMBIO_1
0294   293B           00987      goto   OPCION_USER_1
                      00988 
0295   1848           00989      btfsc  BANDERA_CAMBIO_2
0296   2988           00990      goto   OPCION_USER_2
                      00991 
MPASM  5.51                    PRACTICA 9.ASM   4-8-2018  18:46:13         PAGE 20


LOC  OBJECT CODE     LINE SOURCE TEXT
  VALUE

0297   22E4           00992      call   INCORRECTA
                      00993 
0298   283C           00994      goto   ADMIN
                      00995 
                      00996 
0299                  00997 CONTRASEÑA_CORRECTA
0299   3043           00998      movlw   'C'
029A   0088           00999      movwf PORTD          ; Manda la conversión al puerto D
029B   20DB           01000      call ENVIA           ; Manda Datos al LCD
                      01001 
029C   20E9           01002      call   DELAY
                      01003 
029D   1442           01004      bsf    BANDERA_MENU2
029E   1041           01005      bcf    BANDERA_MENU1
                      01006 
029F   22A5           01007      call   ADELANTE
                      01008 
02A0   1949           01009      btfsc  BANDERA_OPCION_USER1_CAMBIO
02A1   29D8           01010      goto   OPCION_USER1_CAMBIO2
                      01011 
02A2   19C9           01012      btfsc  BANDERA_OPCION_USER2_CAMBIO
02A3   2A04           01013      goto   OPCION_USER2_CAMBIO2
                      01014 
02A4   2864           01015      goto   MENU
                      01016 
                      01017 ;*******************************************************************************
02A5                  01018 ADELANTE
                      01019 
                      01020 ;            btfsc   BANDERA_CAMBIO_1
                      01021 ;            return
                      01022 ;
                      01023 ;            btfsc   BANDERA_CAMBIO_2
                      01024 ;            return
                      01025 
02A5   1949           01026             btfsc   BANDERA_OPCION_USER1_CAMBIO
02A6   0008           01027             return
                      01028 
02A7   19C9           01029             btfsc   BANDERA_OPCION_USER2_CAMBIO
02A8   0008           01030             return
                      01031 
02A9   1847           01032             btfsc   BANDERA_CAMBIO_1
02AA   0008           01033             return
                      01034 
02AB   1848           01035             btfsc   BANDERA_CAMBIO_2
02AC   0008           01036             return
                      01037 
02AD   1007           01038             bcf     PORTC,0
02AE   3001           01039             movlw   b'00000001'
02AF   0088           01040             movwf   PORTD
02B0   1487           01041             bsf     PORTC,1
02B1   0000           01042             NOP
02B2   1087           01043             bcf     PORTC,1
02B3   20E9           01044             call     DELAY
MPASM  5.51                    PRACTICA 9.ASM   4-8-2018  18:46:13         PAGE 21


LOC  OBJECT CODE     LINE SOURCE TEXT
  VALUE

                      01045 
                      01046 
02B4   3020           01047              movlw  ' ' ;A
02B5   0088           01048              movwf  PORTD
02B6   20BF           01049              call   ENVIAMENU
                      01050 
02B7   3020           01051              movlw  ' ' ;D
02B8   0088           01052              movwf  PORTD
02B9   20BF           01053              call   ENVIAMENU
                      01054 
02BA   3020           01055              movlw  ' ' ;A
02BB   0088           01056              movwf  PORTD
02BC   20BF           01057              call   ENVIAMENU
                      01058 
02BD   3020           01059              movlw  ' ' ;D
02BE   0088           01060              movwf  PORTD
02BF   20BF           01061              call   ENVIAMENU
                      01062 
02C0   3041           01063              movlw  'A' ;A
02C1   0088           01064              movwf  PORTD
02C2   20BF           01065              call   ENVIAMENU
                      01066 
02C3   3044           01067              movlw  'D' ;D
02C4   0088           01068              movwf  PORTD
02C5   20BF           01069              call   ENVIAMENU
                      01070 
02C6   3045           01071              movlw  'E' ;M
02C7   0088           01072              movwf  PORTD
02C8   20BF           01073              call   ENVIAMENU
                      01074 
02C9   304C           01075              movlw  'L' ;I
02CA   0088           01076              movwf  PORTD
02CB   20BF           01077              call   ENVIAMENU
                      01078 
02CC   3041           01079              movlw  'A' ;N
02CD   0088           01080              movwf  PORTD
02CE   20BF           01081              call   ENVIAMENU
                      01082 
02CF   304E           01083              movlw  'N' ;
02D0   0088           01084              movwf  PORTD
02D1   20BF           01085              call   ENVIAMENU
                      01086 
02D2   3054           01087              movlw  'T' ;M
02D3   0088           01088              movwf  PORTD
02D4   20BF           01089              call   ENVIAMENU
                      01090 
02D5   3045           01091              movlw  'E' ;M
02D6   0088           01092              movwf  PORTD
02D7   20BF           01093              call   ENVIAMENU
                      01094 
02D8   3021           01095              movlw  '!' ;M
02D9   0088           01096              movwf  PORTD
02DA   20BF           01097              call   ENVIAMENU
MPASM  5.51                    PRACTICA 9.ASM   4-8-2018  18:46:13         PAGE 22


LOC  OBJECT CODE     LINE SOURCE TEXT
  VALUE

                      01098 
02DB   1507           01099              bsf    PORTC,2
02DC   20E9           01100              call   DELAY
02DD   20E9           01101              call   DELAY
02DE   20E9           01102              call   DELAY
02DF   20E9           01103              call   DELAY
02E0   20E9           01104              call   DELAY
02E1   20E9           01105              call   DELAY
02E2   1107           01106              bcf    PORTC,2
                      01107 
02E3   0008           01108              return
                      01109 
                      01110 
                      01111 
                      01112 ;*******************************************************************************
02E4                  01113 INCORRECTA
02E4   1007           01114             bcf     PORTC,0
02E5   3001           01115             movlw   b'00000001'
02E6   0088           01116             movwf   PORTD
02E7   1487           01117             bsf     PORTC,1
02E8   0000           01118             NOP
02E9   1087           01119             bcf     PORTC,1
02EA   20E9           01120             call     DELAY
                      01121 
02EB   3020           01122              movlw  ' ' ;A
02EC   0088           01123              movwf  PORTD
02ED   20BF           01124              call   ENVIAMENU
                      01125 
02EE   3020           01126              movlw  ' ' ;A
02EF   0088           01127              movwf  PORTD
02F0   20BF           01128              call   ENVIAMENU
                      01129 
02F1   3020           01130              movlw  ' ' ;D
02F2   0088           01131              movwf  PORTD
02F3   20BF           01132              call   ENVIAMENU
                      01133 
                      01134 
02F4   3049           01135              movlw  'I' ;A
02F5   0088           01136              movwf  PORTD
02F6   20BF           01137              call   ENVIAMENU
                      01138 
02F7   304E           01139              movlw  'N' ;D
02F8   0088           01140              movwf  PORTD
02F9   20BF           01141              call   ENVIAMENU
                      01142 
02FA   3043           01143              movlw  'C' ;M
02FB   0088           01144              movwf  PORTD
02FC   20BF           01145              call   ENVIAMENU
                      01146 
02FD   304F           01147              movlw  'O' ;I
02FE   0088           01148              movwf  PORTD
02FF   20BF           01149              call   ENVIAMENU
                      01150 
MPASM  5.51                    PRACTICA 9.ASM   4-8-2018  18:46:13         PAGE 23


LOC  OBJECT CODE     LINE SOURCE TEXT
  VALUE

0300   3052           01151              movlw  'R' ;N
0301   0088           01152              movwf  PORTD
0302   20BF           01153              call   ENVIAMENU
                      01154 
0303   3052           01155              movlw  'R' ;
0304   0088           01156              movwf  PORTD
0305   20BF           01157              call   ENVIAMENU
                      01158 
0306   3045           01159              movlw  'E' ;M
0307   0088           01160              movwf  PORTD
0308   20BF           01161              call   ENVIAMENU
                      01162 
0309   3043           01163              movlw  'C' ;I
030A   0088           01164              movwf  PORTD
030B   20BF           01165              call   ENVIAMENU
                      01166 
030C   3054           01167              movlw  'T' ;N
030D   0088           01168              movwf  PORTD
030E   20BF           01169              call   ENVIAMENU
                      01170 
030F   3041           01171              movlw  'A' ;
0310   0088           01172              movwf  PORTD
0311   20BF           01173              call   ENVIAMENU
                      01174 
0312   3021           01175              movlw  '!' ;M
0313   0088           01176              movwf  PORTD
0314   20BF           01177              call   ENVIAMENU
                      01178 
                      01179 
                      01180 
0315   20E9           01181              call   DELAY
0316   20E9           01182              call   DELAY
0317   20E9           01183              call   DELAY
0318   20E9           01184              call   DELAY
0319   20E9           01185              call   DELAY
031A   20E9           01186              call   DELAY
                      01187 
                      01188 
031B   1845           01189              btfsc  BANDERA_TECLEA_1
031C   0ADC           01190              incf   CONT_BLOQUEA_USER1,F
                      01191 
031D   1846           01192              btfsc  BANDERA_TECLEA_2
031E   0ADD           01193              incf   CONT_BLOQUEA_USER2,F
                      01194 
                      01195 
                      01196 
                      01197 
031F   1845           01198              btfsc  BANDERA_TECLEA_1
0320   2A2D           01199              goto   OPCION_USER1_TECLEA
                      01200 
0321   1846           01201              btfsc  BANDERA_TECLEA_2
0322   2A5D           01202              goto   OPCION_USER2_TECLEA
                      01203 
MPASM  5.51                    PRACTICA 9.ASM   4-8-2018  18:46:13         PAGE 24


LOC  OBJECT CODE     LINE SOURCE TEXT
  VALUE

0323   1849           01204              btfsc  BANDERA_ADMIN
0324   283C           01205              goto   ADMIN
0325   2864           01206              goto   MENU
                      01207 
                      01208 
                      01209 
                      01210 ;*******************************************************************************
0326                  01211 BLOQUEAR
                      01212 
0326   01DC           01213             clrf    CONT_BLOQUEA_USER1
0327   01DD           01214             clrf    CONT_BLOQUEA_USER2
0328   1007           01215             bcf     PORTC,0
0329   3001           01216             movlw   b'00000001'
032A   0088           01217             movwf   PORTD
032B   1487           01218             bsf     PORTC,1
032C   0000           01219             NOP
032D   1087           01220             bcf     PORTC,1
032E   20E9           01221             call     DELAY
                      01222 
                      01223 
032F   3020           01224      movlw  ' ' ;A
0330   0088           01225      movwf  PORTD
0331   20BF           01226      call   ENVIAMENU
                      01227 
0332   3020           01228      movlw  ' ' ;A
0333   0088           01229      movwf  PORTD
0334   20BF           01230      call   ENVIAMENU
                      01231 
0335   3020           01232      movlw  ' ' ;A
0336   0088           01233      movwf  PORTD
0337   20BF           01234      call   ENVIAMENU
                      01235 
0338   3042           01236      movlw  'B' ;A
0339   0088           01237      movwf  PORTD
033A   20BF           01238      call   ENVIAMENU
                      01239 
033B   304C           01240      movlw  'L' ;D
033C   0088           01241      movwf  PORTD
033D   20BF           01242      call   ENVIAMENU
                      01243 
033E   304F           01244      movlw  'O' ;M
033F   0088           01245      movwf  PORTD
0340   20BF           01246      call   ENVIAMENU
                      01247 
0341   3051           01248      movlw  'Q' ;I
0342   0088           01249      movwf  PORTD
0343   20BF           01250      call   ENVIAMENU
                      01251 
0344   3055           01252      movlw  'U' ;N
0345   0088           01253      movwf  PORTD
0346   20BF           01254      call   ENVIAMENU
                      01255 
0347   3045           01256      movlw  'E' ;
MPASM  5.51                    PRACTICA 9.ASM   4-8-2018  18:46:13         PAGE 25


LOC  OBJECT CODE     LINE SOURCE TEXT
  VALUE

0348   0088           01257      movwf  PORTD
0349   20BF           01258      call   ENVIAMENU
                      01259 
034A   3041           01260      movlw  'A' ;
034B   0088           01261      movwf  PORTD
034C   20BF           01262      call   ENVIAMENU
                      01263 
034D   3044           01264      movlw  'D' ;
034E   0088           01265      movwf  PORTD
034F   20BF           01266      call   ENVIAMENU
                      01267 
0350   304F           01268      movlw  'O' ;
0351   0088           01269      movwf  PORTD
0352   20BF           01270      call   ENVIAMENU
                      01271 
0353   3021           01272      movlw  '!' ;
0354   0088           01273      movwf  PORTD
0355   20BF           01274      call   ENVIAMENU
                      01275 
                      01276 
0356   20E9           01277      call   DELAY
0357   20E9           01278      call   DELAY
0358   20E9           01279      call   DELAY
0359   20E9           01280      call   DELAY
035A   20E9           01281      call   DELAY
035B   20E9           01282      call   DELAY
035C   20E9           01283      call   DELAY
035D   20E9           01284      call   DELAY
035E   20E9           01285      call   DELAY
035F   20E9           01286      call   DELAY
0360   20E9           01287      call   DELAY
0361   20E9           01288      call   DELAY
0362   20E9           01289      call   DELAY
0363   20E9           01290      call   DELAY
0364   20E9           01291      call   DELAY
                      01292 ;HASTA AQUI TRES SEGUNDOS
0365   20E9           01293      call   DELAY
0366   20E9           01294      call   DELAY
0367   20E9           01295      call   DELAY
0368   20E9           01296      call   DELAY
0369   20E9           01297      call   DELAY
036A   20E9           01298      call   DELAY
036B   20E9           01299      call   DELAY
036C   20E9           01300      call   DELAY
036D   20E9           01301      call   DELAY
036E   20E9           01302      call   DELAY
036F   20E9           01303      call   DELAY
0370   20E9           01304      call   DELAY
0371   20E9           01305      call   DELAY
0372   20E9           01306      call   DELAY
0373   20E9           01307      call   DELAY
                      01308 ;HASTA AQUI SEIS SEGUNDOS
0374   20E9           01309      call   DELAY
MPASM  5.51                    PRACTICA 9.ASM   4-8-2018  18:46:13         PAGE 26


LOC  OBJECT CODE     LINE SOURCE TEXT
  VALUE

0375   20E9           01310      call   DELAY
0376   20E9           01311      call   DELAY
0377   20E9           01312      call   DELAY
0378   20E9           01313      call   DELAY
0379   20E9           01314      call   DELAY
037A   20E9           01315      call   DELAY
037B   20E9           01316      call   DELAY
037C   20E9           01317      call   DELAY
037D   20E9           01318      call   DELAY
037E   20E9           01319      call   DELAY
037F   20E9           01320      call   DELAY
0380   20E9           01321      call   DELAY
0381   20E9           01322      call   DELAY
0382   20E9           01323      call   DELAY
                      01324 ;HASTA AQUI 10 SEGUNDOS
                      01325 
                      01326 
                      01327 
0383   2864           01328      goto   MENU
                      01329 ;*******************************************************************************
                      01330 ;contraseña 0 1 2 3
0384                  01331 COMPARA_CONTRASEÑA
                      01332 
                      01333 
0384   1849           01334     btfsc  BANDERA_ADMIN
0385   2B90           01335     goto   COMPARA_ADMIN
                      01336 
0386   1845           01337     btfsc  BANDERA_TECLEA_1
0387   2BA5           01338     goto    COMPARA_USER_1
                      01339 
0388   1846           01340     btfsc  BANDERA_TECLEA_2
0389   2BBA           01341     goto   COMPARA_USER_2
                      01342 
038A   1849           01343     btfsc  BANDERA_ADMIN
038B   2132           01344     call    ASIGNA_VALORES_ADMIN
                      01345 
038C   1847           01346     btfsc  BANDERA_CAMBIO_1
038D   2BD9           01347     goto    CAMBIO_VALORES_1
                      01348 
038E   1848           01349     btfsc  BANDERA_CAMBIO_2
038F   2BE2           01350     goto   CAMBIO_VALORES_2
                      01351 
                      01352 
                      01353 
                      01354 
0390                  01355 COMPARA_ADMIN
0390   1103           01356         bcf     STATUS,Z
0391   0850           01357         movf    VAR1,W
0392   0220           01358         subwf   0X20,W
0393   1D03           01359         btfss   STATUS,Z
0394   2A8D           01360         goto    CONTRASEÑA_INCORRECTA
                      01361 
0395   1103           01362         bcf     STATUS,Z
MPASM  5.51                    PRACTICA 9.ASM   4-8-2018  18:46:13         PAGE 27


LOC  OBJECT CODE     LINE SOURCE TEXT
  VALUE

0396   0851           01363         movf    VAR2,W
0397   0221           01364         subwf   0x21,W
0398   1D03           01365         btfss   STATUS,Z
0399   2A8D           01366         goto    CONTRASEÑA_INCORRECTA
                      01367 
039A   1103           01368         bcf     STATUS,Z
039B   0852           01369         movf    VAR3,W
039C   0222           01370         subwf   0X22,W
039D   1D03           01371         btfss   STATUS,Z
039E   2A8D           01372         goto    CONTRASEÑA_INCORRECTA
                      01373 
039F   1103           01374         bcf     STATUS,Z
03A0   0853           01375         movf    VAR4,W
03A1   0223           01376         subwf   0X23,W
03A2   1D03           01377         btfss   STATUS,Z
03A3   2A8D           01378         goto    CONTRASEÑA_INCORRECTA
03A4   2BCE           01379         goto    TERMINO_COMPARA
                      01380 
03A5                  01381 COMPARA_USER_1
03A5   1103           01382         bcf     STATUS,Z
03A6   0854           01383         movf    VAR1_1,W
03A7   0220           01384         subwf   0X20,W
03A8   1D03           01385         btfss   STATUS,Z
03A9   2A8D           01386         goto    CONTRASEÑA_INCORRECTA
                      01387 
03AA   1103           01388         bcf     STATUS,Z
03AB   0855           01389         movf    VAR2_1,W
03AC   0221           01390         subwf   0x21,W
03AD   1D03           01391         btfss   STATUS,Z
03AE   2A8D           01392         goto    CONTRASEÑA_INCORRECTA
                      01393 
03AF   1103           01394         bcf     STATUS,Z
03B0   0856           01395         movf    VAR3_1,W
03B1   0222           01396         subwf   0X22,W
03B2   1D03           01397         btfss   STATUS,Z
03B3   2A8D           01398         goto    CONTRASEÑA_INCORRECTA
                      01399 
03B4   1103           01400         bcf     STATUS,Z
03B5   0857           01401         movf    VAR4_1,W
03B6   0223           01402         subwf   0X23,W
03B7   1D03           01403         btfss   STATUS,Z
03B8   2A8D           01404         goto    CONTRASEÑA_INCORRECTA
03B9   2BCE           01405         goto    TERMINO_COMPARA
                      01406 
03BA                  01407 COMPARA_USER_2
03BA   1103           01408         bcf     STATUS,Z
03BB   0858           01409         movf    VAR1_2,W
03BC   0220           01410         subwf   0X20,W
03BD   1D03           01411         btfss   STATUS,Z
03BE   2A8D           01412         goto    CONTRASEÑA_INCORRECTA
                      01413 
03BF   1103           01414         bcf     STATUS,Z
03C0   0859           01415         movf    VAR2_2,W
MPASM  5.51                    PRACTICA 9.ASM   4-8-2018  18:46:13         PAGE 28


LOC  OBJECT CODE     LINE SOURCE TEXT
  VALUE

03C1   0221           01416         subwf   0x21,W
03C2   1D03           01417         btfss   STATUS,Z
03C3   2A8D           01418         goto    CONTRASEÑA_INCORRECTA
                      01419 
03C4   1103           01420         bcf     STATUS,Z
03C5   085A           01421         movf    VAR3_2,W
03C6   0222           01422         subwf   0X22,W
03C7   1D03           01423         btfss   STATUS,Z
03C8   2A8D           01424         goto    CONTRASEÑA_INCORRECTA
                      01425 
03C9   1103           01426         bcf     STATUS,Z
03CA   085B           01427         movf    VAR4_2,W
03CB   0223           01428         subwf   0X23,W
03CC   1D03           01429         btfss   STATUS,Z
03CD   2A8D           01430         goto    CONTRASEÑA_INCORRECTA
                      01431 
03CE                  01432 TERMINO_COMPARA
                      01433 
                      01434 
                      01435        ;btfsc   BANDERA_CAMBIO_1
                      01436        ; call    CAMBIO_VALORES_1
                      01437 
                      01438       ;  btfsc   BANDERA_CAMBIO_2
                      01439        ; call    CAMBIO_VALORES_2
                      01440 
03CE                  01441 TERMINO_ASIGNA
                      01442 
03CE   1440           01443         bsf BANDERA_CONTRA
                      01444 
                      01445 
03CF   0008           01446         return
                      01447 
                      01448 
03D0                  01449 CAMBIO_VALORES_ADMIN
03D0   0820           01450     movf    0x20,W
03D1   00D0           01451     movwf   VAR1
                      01452 
03D2   0821           01453     movf    0x21,W
03D3   00D1           01454     movwf   VAR2
                      01455 
03D4   0822           01456     movf    0x22,W
03D5   00D2           01457     movwf   VAR3
                      01458 
03D6   0823           01459     movf    0x23,W
03D7   00D3           01460     movwf   VAR4
                      01461 
                      01462 ;    bcf    BANDERA_MENU2
                      01463 ;    bsf    BANDERA_MENU1
                      01464 ;    bcf     BANDERA_USER_1
                      01465 ;    bcf     BANDERA_USER_2
                      01466 ;     bcf    BANDERA_TECLEA_1
                      01467 ;     bcf    BANDERA_TECLEA_2
                      01468 ;     BcF    BANDERA_CAMBIO_1
MPASM  5.51                    PRACTICA 9.ASM   4-8-2018  18:46:13         PAGE 29


LOC  OBJECT CODE     LINE SOURCE TEXT
  VALUE

                      01469 ;     BCF    BANDERA_CAMBIO_2
                      01470 ;      bcf    BANDERA_ADMIN
                      01471 
                      01472 
03D8   0008           01473     return
                      01474 
03D9                  01475 CAMBIO_VALORES_1
03D9   0820           01476     movf    0x20,W
03DA   00D4           01477     movwf   VAR1_1
                      01478 
03DB   0821           01479     movf    0x21,W
03DC   00D5           01480     movwf   VAR2_1
                      01481 
03DD   0822           01482     movf    0x22,W
03DE   00D6           01483     movwf   VAR3_1
                      01484 
03DF   0823           01485     movf    0x23,W
03E0   00D7           01486     movwf   VAR4_1
                      01487 
                      01488 ;    bcf    BANDERA_MENU2
                      01489 ;    bsf    BANDERA_MENU1
                      01490 ;    bcf     BANDERA_USER_1
                      01491 ;    bcf     BANDERA_USER_2
                      01492 ;     bcf    BANDERA_TECLEA_1
                      01493 ;     bcf    BANDERA_TECLEA_2
                      01494 ;     BcF    BANDERA_CAMBIO_1
                      01495 ;     BCF    BANDERA_CAMBIO_2
                      01496 ;      bcf    BANDERA_ADMIN
                      01497 ;
                      01498 
03E1   2BCE           01499     goto    TERMINO_ASIGNA
                      01500 
03E2                  01501 CAMBIO_VALORES_2
03E2   0820           01502     movf    0x20,W
03E3   00D8           01503     movwf   VAR1_2
                      01504 
03E4   0821           01505     movf    0x21,W
03E5   00D9           01506     movwf   VAR2_2
                      01507 
03E6   0822           01508     movf    0x22,W
03E7   00DA           01509     movwf   VAR3_2
                      01510 
03E8   0823           01511     movf    0x23,W
03E9   00DB           01512     movwf   VAR4_2
                      01513 
                      01514 ;    bCf    BANDERA_MENU2
                      01515 ;    bSf    BANDERA_MENU1
                      01516 ;    bcf     BANDERA_USER_1
                      01517 ;    bcf     BANDERA_USER_2
                      01518 ;     bcf    BANDERA_TECLEA_1
                      01519 ;     bcf    BANDERA_TECLEA_2
                      01520 ;     BcF    BANDERA_CAMBIO_1
                      01521 ;     BCF    BANDERA_CAMBIO_2
MPASM  5.51                    PRACTICA 9.ASM   4-8-2018  18:46:13         PAGE 30


LOC  OBJECT CODE     LINE SOURCE TEXT
  VALUE

                      01522 ;      bcf    BANDERA_ADMIN
                      01523 
                      01524 
03EA   2BCE           01525     goto    TERMINO_ASIGNA
                      01526 
                      01527 
03EB                  01528 DIRECCIONAMIENTO_0
03EB   3000           01529         movlw   .0
03EC   0080           01530         movwf   INDF
03ED   0A84           01531         incf    FSR,F
03EE   0008           01532         return
                      01533 
03EF                  01534 DIRECCIONAMIENTO_1
03EF   3001           01535         movlw   .1
03F0   0080           01536         movwf   INDF
03F1   0A84           01537         incf    FSR,F
03F2   0008           01538         return
                      01539 
03F3                  01540 DIRECCIONAMIENTO_2
03F3   3002           01541         movlw   .2
03F4   0080           01542         movwf   INDF
03F5   0A84           01543         incf    FSR,F
03F6   0008           01544         return
                      01545 
                      01546 
03F7                  01547 DIRECCIONAMIENTO_3
03F7   3003           01548         movlw   .3
03F8   0080           01549         movwf   INDF
03F9   0A84           01550         incf    FSR,F
03FA   0008           01551         return
                      01552 
03FB                  01553 DIRECCIONAMIENTO_4
03FB   3004           01554         movlw   .4
03FC   0080           01555         movwf   INDF
03FD   0A84           01556         incf    FSR,F
03FE   0008           01557         return
                      01558 
03FF                  01559 DIRECCIONAMIENTO_5
03FF   3005           01560         movlw   .5
0400   0080           01561         movwf   INDF
0401   0A84           01562         incf    FSR,F
0402   0008           01563         return
                      01564 
0403                  01565 DIRECCIONAMIENTO_6
0403   3006           01566         movlw   .6
0404   0080           01567         movwf   INDF
0405   0A84           01568         incf    FSR,F
0406   0008           01569         return
                      01570 
0407                  01571 DIRECCIONAMIENTO_7
0407   3007           01572         movlw   .7
0408   0080           01573         movwf   INDF
0409   0A84           01574         incf    FSR,F
MPASM  5.51                    PRACTICA 9.ASM   4-8-2018  18:46:13         PAGE 31


LOC  OBJECT CODE     LINE SOURCE TEXT
  VALUE

040A   0008           01575         return
                      01576 
040B                  01577 DIRECCIONAMIENTO_8
040B   3008           01578         movlw   .8
040C   0080           01579         movwf   INDF
040D   0A84           01580         incf    FSR,F
040E   0008           01581         return
                      01582 
040F                  01583 DIRECCIONAMIENTO_9
040F   3009           01584         movlw   .9
0410   0080           01585         movwf   INDF
0411   0A84           01586         incf    FSR,F
0412   0008           01587         return
                      01588 
0413                  01589 CERO
                      01590 
0413   302A           01591       movlw   '*'
0414   0088           01592      movwf PORTD          ; Manda la conversión al puerto D
0415   20DB           01593      call ENVIA           ; Manda Datos al LCD
                      01594 
0416   1842           01595      btfsc  BANDERA_MENU2
0417   2817           01596      goto   INICIO
                      01597 
0418   23EB           01598      call DIRECCIONAMIENTO_0
0419   1103           01599     bcf     STATUS,Z
041A   0AB3           01600     incf    TEMP,F
041B   3007           01601     movlw   .7
041C   0233           01602     subwf   TEMP,W
041D   1903           01603     btfsc   STATUS,Z
041E   2384           01604     call    COMPARA_CONTRASEÑA
041F   2914           01605     goto    REGRESO_CONV_TECLA
                      01606 
                      01607 
                      01608 
0420                  01609 UNO
0420   302A           01610      movlw   '*'
0421   0088           01611      movwf PORTD          ; Manda la conversión al puerto D
0422   20DB           01612      call ENVIA           ; Manda Datos al LCD
                      01613 
0423   1842           01614      btfsc  BANDERA_MENU2
0424   293B           01615      goto   OPCION_USER_1
                      01616 
0425   1843           01617      btfsc  BANDERA_USER_1
0426   2A2D           01618      goto   OPCION_USER1_TECLEA
                      01619 
0427   1844           01620      btfsc  BANDERA_USER_2
0428   2A5D           01621      goto   OPCION_USER2_TECLEA
                      01622 
0429   23EF           01623      call    DIRECCIONAMIENTO_1
042A   1103           01624     bcf     STATUS,Z
042B   0AB3           01625     incf    TEMP,F
042C   3007           01626     movlw   .7
042D   0233           01627     subwf   TEMP,W
MPASM  5.51                    PRACTICA 9.ASM   4-8-2018  18:46:13         PAGE 32


LOC  OBJECT CODE     LINE SOURCE TEXT
  VALUE

042E   1903           01628     btfsc   STATUS,Z
042F   2384           01629     call    COMPARA_CONTRASEÑA
0430   2914           01630     goto    REGRESO_CONV_TECLA
                      01631 
                      01632 
0431                  01633 DOS
0431   302A           01634      movlw   '*'
0432   0088           01635      movwf PORTD          ; Manda la conversión al puerto D
0433   20DB           01636      call ENVIA           ; Manda Datos al LCD
                      01637 
0434   1842           01638      btfsc  BANDERA_MENU2
0435   2988           01639      goto   OPCION_USER_2
                      01640 
0436   1843           01641      btfsc  BANDERA_USER_1
0437   29D5           01642      goto   OPCION_USER1_CAMBIO
                      01643 
0438   1844           01644      btfsc  BANDERA_USER_2
0439   2A01           01645      goto   OPCION_USER2_CAMBIO
                      01646 
043A   23F3           01647      call    DIRECCIONAMIENTO_2
043B   1103           01648     bcf     STATUS,Z
043C   0AB3           01649     incf    TEMP,F
043D   3007           01650     movlw   .7
043E   0233           01651     subwf   TEMP,W
043F   1903           01652     btfsc   STATUS,Z
0440   2384           01653     call    COMPARA_CONTRASEÑA
0441   2914           01654     goto    REGRESO_CONV_TECLA
                      01655 
                      01656 
                      01657 
0442                  01658 TRES
0442   302A           01659       movlw   '*'
0443   0088           01660      movwf PORTD          ; Manda la conversión al puerto D
0444   20DB           01661      call ENVIA           ; Manda Datos al LCD
                      01662 
0445   23F7           01663      call    DIRECCIONAMIENTO_3
                      01664 
0446   1103           01665      bcf     STATUS,Z
0447   0AB3           01666     incf    TEMP,F
0448   3007           01667     movlw   .7
0449   0233           01668     subwf   TEMP,W
044A   1903           01669     btfsc   STATUS,Z
044B   2384           01670     call    COMPARA_CONTRASEÑA
044C   2914           01671     goto    REGRESO_CONV_TECLA
                      01672 
                      01673 
044D                  01674 CUATRO
044D   302A           01675    movlw   '*'
044E   0088           01676      movwf PORTD          ; Manda la conversión al puerto D
044F   20DB           01677      call ENVIA           ; Manda Datos al LCD
                      01678 
0450   23FB           01679      call    DIRECCIONAMIENTO_4
                      01680 
MPASM  5.51                    PRACTICA 9.ASM   4-8-2018  18:46:13         PAGE 33


LOC  OBJECT CODE     LINE SOURCE TEXT
  VALUE

0451   1103           01681      bcf     STATUS,Z
0452   0AB3           01682     incf    TEMP,F
0453   3007           01683     movlw   .7
0454   0233           01684     subwf   TEMP,W
0455   1903           01685     btfsc   STATUS,Z
0456   2384           01686     call    COMPARA_CONTRASEÑA
0457   2914           01687     goto    REGRESO_CONV_TECLA
                      01688 
0458                  01689 CINCO
0458   302A           01690     movlw   '*'
0459   0088           01691      movwf PORTD          ; Manda la conversión al puerto D
045A   20DB           01692      call ENVIA           ; Manda Datos al LCD
                      01693 
045B   23FF           01694      call    DIRECCIONAMIENTO_5
                      01695 
045C   1103           01696      bcf     STATUS,Z
045D   0AB3           01697     incf    TEMP,F
045E   3007           01698     movlw   .7
045F   0233           01699     subwf   TEMP,W
0460   1903           01700     btfsc   STATUS,Z
0461   2384           01701     call    COMPARA_CONTRASEÑA
0462   2914           01702     goto    REGRESO_CONV_TECLA
                      01703 
0463                  01704 SEIS
0463   302A           01705     movlw   '*'
0464   0088           01706      movwf PORTD          ; Manda la conversión al puerto D
0465   20DB           01707      call ENVIA           ; Manda Datos al LCD
                      01708 
0466   2403           01709      call    DIRECCIONAMIENTO_6
                      01710 
0467   1103           01711      bcf     STATUS,Z
0468   0AB3           01712     incf    TEMP,F
0469   3007           01713     movlw   .7
046A   0233           01714     subwf   TEMP,W
046B   1903           01715     btfsc   STATUS,Z
046C   2384           01716     call    COMPARA_CONTRASEÑA
046D   2914           01717     goto    REGRESO_CONV_TECLA
                      01718 
046E                  01719 SIETE
046E   302A           01720     movlw   '*'
046F   0088           01721      movwf PORTD          ; Manda la conversión al puerto D
0470   20DB           01722      call ENVIA           ; Manda Datos al LCD
                      01723 
0471   2407           01724      call    DIRECCIONAMIENTO_7
                      01725 
0472   1103           01726      bcf     STATUS,Z
0473   0AB3           01727     incf    TEMP,F
0474   3007           01728     movlw   .7
0475   0233           01729     subwf   TEMP,W
0476   1903           01730     btfsc   STATUS,Z
0477   2384           01731     call    COMPARA_CONTRASEÑA
0478   2914           01732     goto    REGRESO_CONV_TECLA
                      01733 
MPASM  5.51                    PRACTICA 9.ASM   4-8-2018  18:46:13         PAGE 34


LOC  OBJECT CODE     LINE SOURCE TEXT
  VALUE

0479                  01734 OCHO
0479   302A           01735     movlw   '*'
047A   0088           01736      movwf PORTD          ; Manda la conversión al puerto D
047B   20DB           01737      call ENVIA           ; Manda Datos al LCD
                      01738 
047C   240B           01739      call    DIRECCIONAMIENTO_8
                      01740 
047D   1103           01741      bcf     STATUS,Z
047E   0AB3           01742     incf    TEMP,F
047F   3007           01743     movlw   .7
0480   0233           01744     subwf   TEMP,W
0481   1903           01745     btfsc   STATUS,Z
0482   2384           01746     call    COMPARA_CONTRASEÑA
0483   2914           01747     goto    REGRESO_CONV_TECLA
                      01748 
0484                  01749 NUEVE
0484   302A           01750     movlw   '*'
0485   0088           01751      movwf PORTD          ; Manda la conversión al puerto D
0486   20DB           01752      call ENVIA           ; Manda Datos al LCD
                      01753 
0487   240F           01754      call    DIRECCIONAMIENTO_9
                      01755 
0488   1103           01756      bcf     STATUS,Z
0489   0AB3           01757     incf    TEMP,F
048A   3007           01758     movlw   .7
048B   0233           01759     subwf   TEMP,W
048C   1903           01760     btfsc   STATUS,Z
048D   2384           01761     call    COMPARA_CONTRASEÑA
048E   2914           01762     goto    REGRESO_CONV_TECLA
                      01763 
048F                  01764 AA
048F   300A           01765     movlw   .10
0490   0085           01766     movwf   PORTA
0491   3041           01767     movlw   'A'
                      01768 
0492   0088           01769      movwf PORTD          ; Manda la conversión al puerto D
0493   20DB           01770      call ENVIA           ; Manda Datos al LCD
0494   0008           01771      return
                      01772 
0495                  01773 BB
0495   300B           01774     movlw   .11
0496   0085           01775     movwf   PORTA
0497   3042           01776     movlw   'B'
                      01777 
0498   0088           01778      movwf PORTD          ; Manda la conversión al puerto D
0499   20DB           01779      call ENVIA           ; Manda Datos al LCD
049A   0008           01780      return
                      01781 
049B                  01782 CC
049B   300C           01783     movlw   .12
049C   0085           01784     movwf   PORTA
049D   3043           01785     movlw   'C'
                      01786 
MPASM  5.51                    PRACTICA 9.ASM   4-8-2018  18:46:13         PAGE 35


LOC  OBJECT CODE     LINE SOURCE TEXT
  VALUE

049E   0088           01787      movwf PORTD          ; Manda la conversión al puerto D
049F   20DB           01788      call ENVIA           ; Manda Datos al LCD
04A0   0008           01789      return
                      01790 
04A1                  01791 DD
04A1   300D           01792     movlw   .13
04A2   0085           01793     movwf   PORTA
04A3   3044           01794     movlw   'D'
                      01795 
04A4   0088           01796      movwf PORTD          ; Manda la conversión al puerto D
04A5   20DB           01797      call ENVIA           ; Manda Datos al LCD
04A6   0008           01798      return
                      01799 
04A7                  01800 EE
04A7   300E           01801     movlw   .14
04A8   0085           01802     movwf   PORTA
04A9   3045           01803     movlw   'E'
                      01804 
04AA   0088           01805      movwf PORTD          ; Manda la conversión al puerto D
04AB   20DB           01806      call ENVIA           ; Manda Datos al LCD
04AC   0008           01807      return
                      01808 
04AD                  01809 FF
04AD   300F           01810     movlw   .15
04AE   0085           01811     movwf   PORTA
04AF   3046           01812     movlw   'F'
                      01813 
04B0   0088           01814      movwf PORTD          ; Manda la conversión al puerto D
04B1   20DB           01815      call ENVIA           ; Manda Datos al LCD
04B2   0008           01816      return
                      01817 
                      01818 
                      01819 
                      01820  end
MPASM  5.51                    PRACTICA 9.ASM   4-8-2018  18:46:13         PAGE 36


SYMBOL TABLE
  LABEL                             VALUE 

AA                                0000048F
ACKDT                             00000005
ACKEN                             00000004
ACKSTAT                           00000006
ADCON0                            0000001F
ADCON1                            0000009F
ADCS0                             00000006
ADCS1                             00000007
ADCS2                             00000006
ADDEN                             00000003
ADELANTE                          000002A5
ADFM                              00000007
ADIE                              00000006
ADIF                              00000006
ADMIN                             0000003C
ADON                              00000000
ADRESH                            0000001E
ADRESL                            0000009E
ASIGNA_VALORES_1                  00000120
ASIGNA_VALORES_2                  00000129
ASIGNA_VALORES_ADMIN              00000132
BANDERA_ADMIN                     0X49,0
BANDERA_CAMBIO_1                  0X47,0
BANDERA_CAMBIO_2                  0X48,0
BANDERA_CONTRA                    0X40,0
BANDERA_MENU1                     0X41,0
BANDERA_MENU2                     0X42,0
BANDERA_OPCION_USER1_CAMBIO       0X49,2
BANDERA_OPCION_USER2_CAMBIO       0X49,3
BANDERA_TECLEA_1                  0X45,0
BANDERA_TECLEA_2                  0X46,0
BANDERA_TECLEA_ADMIN              0X49,1
BANDERA_USER_1                    0X43,0
BANDERA_USER_2                    0X44,0
BB                                00000495
BCLIE                             00000003
BCLIF                             00000003
BF                                00000000
BLOQUEAR                          00000326
BRGH                              00000002
C                                 00000000
C1INV                             00000004
C1OUT                             00000006
C2INV                             00000005
C2OUT                             00000007
CAMBIO_VALORES_1                  000003D9
CAMBIO_VALORES_2                  000003E2
CAMBIO_VALORES_ADMIN              000003D0
CC                                0000049B
CCP1CON                           00000017
CCP1IE                            00000002
CCP1IF                            00000002
CCP1M0                            00000000
MPASM  5.51                    PRACTICA 9.ASM   4-8-2018  18:46:13         PAGE 37


SYMBOL TABLE
  LABEL                             VALUE 

CCP1M1                            00000001
CCP1M2                            00000002
CCP1M3                            00000003
CCP1X                             00000005
CCP1Y                             00000004
CCP2CON                           0000001D
CCP2IE                            00000000
CCP2IF                            00000000
CCP2M0                            00000000
CCP2M1                            00000001
CCP2M2                            00000002
CCP2M3                            00000003
CCP2X                             00000005
CCP2Y                             00000004
CCPR1                             00000015
CCPR1H                            00000016
CCPR1L                            00000015
CCPR2                             0000001B
CCPR2H                            0000001C
CCPR2L                            0000001B
CERO                              00000413
CHK_COL                           000000F7
CHS0                              00000003
CHS1                              00000004
CHS2                              00000005
CINCO                             00000458
CIS                               00000003
CKE                               00000006
CKP                               00000004
CM0                               00000000
CM1                               00000001
CM2                               00000002
CMCON                             0000009C
CMIE                              00000006
CMIF                              00000006
COMANDO                           000000DE
COMANDOMENU                       000000C2
COMANDOMENUBRINCO                 000000BB
COMPARA_ADMIN                     00000390
COMPARA_CONTRASEÑA                00000384
COMPARA_USER_1                    000003A5
COMPARA_USER_2                    000003BA
CONTRASEÑA_CORRECTA               00000299
CONTRASEÑA_INCORRECTA             0000028D
CONT_BLOQUEA_USER1                0000005C
CONT_BLOQUEA_USER2                0000005D
CONV_TECLA                        00000005
CREN                              00000004
CSRC                              00000007
CUATRO                            0000044D
CVR0                              00000000
CVR1                              00000001
CVR2                              00000002
MPASM  5.51                    PRACTICA 9.ASM   4-8-2018  18:46:13         PAGE 38


SYMBOL TABLE
  LABEL                             VALUE 

CVR3                              00000003
CVRCON                            0000009D
CVREN                             00000007
CVROE                             00000006
CVRR                              00000005
D                                 00000005
DATA_ADDRESS                      00000005
DC                                00000001
DD                                000004A1
DELAY                             000000E9
DELAYMENU                         000000C6
DIRECCIONAMIENTO_0                000003EB
DIRECCIONAMIENTO_1                000003EF
DIRECCIONAMIENTO_2                000003F3
DIRECCIONAMIENTO_3                000003F7
DIRECCIONAMIENTO_4                000003FB
DIRECCIONAMIENTO_5                000003FF
DIRECCIONAMIENTO_6                00000403
DIRECCIONAMIENTO_7                00000407
DIRECCIONAMIENTO_8                0000040B
DIRECCIONAMIENTO_9                0000040F
DOS                               00000431
D_A                               00000005
D_NOT_A                           00000005
EE                                000004A7
EEADR                             0000010D
EEADRH                            0000010F
EECON1                            0000018C
EECON2                            0000018D
EEDATA                            0000010C
EEDATH                            0000010E
EEIE                              00000004
EEIF                              00000004
EEPGD                             00000007
ENVIA                             000000DB
ENVIABRINCO                       000000B8
ENVIAMENU                         000000BF
Espera1                           0000010A
Espera2                           0000010C
Espera3                           0000010E
Espera4                           00000110
F                                 00000001
FERR                              00000002
FF                                000004AD
FSR                               00000004
GCEN                              00000007
GIE                               00000007
GO                                00000002
GO_DONE                           00000002
GO_NOT_DONE                       00000002
I2C_DATA                          00000005
I2C_READ                          00000002
I2C_START                         00000003
MPASM  5.51                    PRACTICA 9.ASM   4-8-2018  18:46:13         PAGE 39


SYMBOL TABLE
  LABEL                             VALUE 

I2C_STOP                          00000004
IBF                               00000007
IBOV                              00000005
INCORRECTA                        000002E4
INDF                              00000000
INICIA_LCD                        000000CF
INICIO                            00000017
INTCON                            0000000B
INTE                              00000004
INTEDG                            00000006
INTF                              00000001
IRP                               00000007
LINEA2                            000000E4
MENU                              00000064
NEW_SCAN                          000000F2
NEXT_COL                          00000107
NOT_A                             00000005
NOT_ADDRESS                       00000005
NOT_BO                            00000000
NOT_BOR                           00000000
NOT_DONE                          00000002
NOT_PD                            00000003
NOT_POR                           00000001
NOT_RBPU                          00000007
NOT_RC8                           00000006
NOT_T1SYNC                        00000002
NOT_TO                            00000004
NOT_TX8                           00000006
NOT_W                             00000002
NOT_WRITE                         00000002
NUEVE                             00000484
OBF                               00000006
OCHO                              00000479
OERR                              00000001
OPCION_USER1_CAMBIO               000001D5
OPCION_USER1_CAMBIO2              000001D8
OPCION_USER1_TECLEA               0000022D
OPCION_USER2_CAMBIO               00000201
OPCION_USER2_CAMBIO2              00000204
OPCION_USER2_TECLEA               0000025D
OPCION_USER_1                     0000013B
OPCION_USER_2                     00000188
OPTION_REG                        00000081
P                                 00000004
PCFG0                             00000000
PCFG1                             00000001
PCFG2                             00000002
PCFG3                             00000003
PCL                               00000002
PCLATH                            0000000A
PCON                              0000008E
PEIE                              00000006
PEN                               00000002
MPASM  5.51                    PRACTICA 9.ASM   4-8-2018  18:46:13         PAGE 40


SYMBOL TABLE
  LABEL                             VALUE 

PIE1                              0000008C
PIE2                              0000008D
PIR1                              0000000C
PIR2                              0000000D
PORTA                             00000005
PORTB                             00000006
PORTC                             00000007
PORTD                             00000008
PORTE                             00000009
PR2                               00000092
PS0                               00000000
PS1                               00000001
PS2                               00000002
PSA                               00000003
PSPIE                             00000007
PSPIF                             00000007
PSPMODE                           00000004
R                                 00000002
RA0                               00000000
RA1                               00000001
RA2                               00000002
RA3                               00000003
RA4                               00000004
RA5                               00000005
RB0                               00000000
RB1                               00000001
RB2                               00000002
RB3                               00000003
RB4                               00000004
RB5                               00000005
RB6                               00000006
RB7                               00000007
RBIE                              00000003
RBIF                              00000000
RC0                               00000000
RC1                               00000001
RC2                               00000002
RC3                               00000003
RC4                               00000004
RC5                               00000005
RC6                               00000006
RC7                               00000007
RC8_9                             00000006
RC9                               00000006
RCD8                              00000000
RCEN                              00000003
RCIE                              00000005
RCIF                              00000005
RCREG                             0000001A
RCSTA                             00000018
RD                                00000000
RD0                               00000000
RD1                               00000001
MPASM  5.51                    PRACTICA 9.ASM   4-8-2018  18:46:13         PAGE 41


SYMBOL TABLE
  LABEL                             VALUE 

RD2                               00000002
RD3                               00000003
RD4                               00000004
RD5                               00000005
RD6                               00000006
RD7                               00000007
RE0                               00000000
RE1                               00000001
RE2                               00000002
READ_WRITE                        00000002
REGRESA_MENU                      0000003B
REGRESO_ASIGNACION                00000112
REGRESO_CONV_TECLA                00000114
RP0                               00000005
RP1                               00000006
RSEN                              00000001
RX9                               00000006
RX9D                              00000000
R_NOT_W                           00000002
R_W                               00000002
S                                 00000003
SEIS                              00000463
SEN                               00000000
SIETE                             0000046E
SMP                               00000007
SPBRG                             00000099
SPEN                              00000007
SREN                              00000005
SSPADD                            00000093
SSPBUF                            00000013
SSPCON                            00000014
SSPCON2                           00000091
SSPEN                             00000005
SSPIE                             00000003
SSPIF                             00000003
SSPM0                             00000000
SSPM1                             00000001
SSPM2                             00000002
SSPM3                             00000003
SSPOV                             00000006
SSPSTAT                           00000094
START                             00000038
STATUS                            00000003
SYNC                              00000004
T0CS                              00000005
T0IE                              00000005
T0IF                              00000002
T0SE                              00000004
T1CKPS0                           00000004
T1CKPS1                           00000005
T1CON                             00000010
T1INSYNC                          00000002
T1OSCEN                           00000003
MPASM  5.51                    PRACTICA 9.ASM   4-8-2018  18:46:13         PAGE 42


SYMBOL TABLE
  LABEL                             VALUE 

T1SYNC                            00000002
T2CKPS0                           00000000
T2CKPS1                           00000001
T2CON                             00000012
TECLA_ON                          0000010A
TEMP                              00000033
TEMP2                             00000034
TERMINO_ASIGNA                    000003CE
TERMINO_COMPARA                   000003CE
TMR0                              00000001
TMR0IE                            00000005
TMR0IF                            00000002
TMR1                              0000000E
TMR1CS                            00000001
TMR1H                             0000000F
TMR1IE                            00000000
TMR1IF                            00000000
TMR1L                             0000000E
TMR1ON                            00000000
TMR2                              00000011
TMR2IE                            00000001
TMR2IF                            00000001
TMR2ON                            00000002
TOUTPS0                           00000003
TOUTPS1                           00000004
TOUTPS2                           00000005
TOUTPS3                           00000006
TRES                              00000442
TRISA                             00000085
TRISA0                            00000000
TRISA1                            00000001
TRISA2                            00000002
TRISA3                            00000003
TRISA4                            00000004
TRISA5                            00000005
TRISB                             00000086
TRISB0                            00000000
TRISB1                            00000001
TRISB2                            00000002
TRISB3                            00000003
TRISB4                            00000004
TRISB5                            00000005
TRISB6                            00000006
TRISB7                            00000007
TRISC                             00000087
TRISC0                            00000000
TRISC1                            00000001
TRISC2                            00000002
TRISC3                            00000003
TRISC4                            00000004
TRISC5                            00000005
TRISC6                            00000006
TRISC7                            00000007
MPASM  5.51                    PRACTICA 9.ASM   4-8-2018  18:46:13         PAGE 43


SYMBOL TABLE
  LABEL                             VALUE 

TRISD                             00000088
TRISD0                            00000000
TRISD1                            00000001
TRISD2                            00000002
TRISD3                            00000003
TRISD4                            00000004
TRISD5                            00000005
TRISD6                            00000006
TRISD7                            00000007
TRISE                             00000089
TRISE0                            00000000
TRISE1                            00000001
TRISE2                            00000002
TRMT                              00000001
TX8_9                             00000006
TX9                               00000006
TX9D                              00000000
TXD8                              00000000
TXEN                              00000005
TXIE                              00000004
TXIF                              00000004
TXREG                             00000019
TXSTA                             00000098
UA                                00000001
UNO                               00000420
VAR1                              00000050
VAR1_1                            00000054
VAR1_2                            00000058
VAR2                              00000051
VAR2_1                            00000055
VAR2_2                            00000059
VAR3                              00000052
VAR3_1                            00000056
VAR3_2                            0000005A
VAR4                              00000053
VAR4_1                            00000057
VAR4_2                            0000005B
W                                 00000000
WCOL                              00000007
WR                                00000001
WREN                              00000002
WRERR                             00000003
Z                                 00000002
_BODEN_OFF                        00003FBF
_BODEN_ON                         00003FFF
_BOREN_OFF                        00003FBF
_BOREN_ON                         00003FFF
_CONFIG                           00002007
_CPD_OFF                          00003FFF
_CPD_ON                           00003EFF
_CP_ALL                           00001FFF
_CP_OFF                           00003FFF
_CP_ON                            00001FFF
MPASM  5.51                    PRACTICA 9.ASM   4-8-2018  18:46:13         PAGE 44


SYMBOL TABLE
  LABEL                             VALUE 

_DEBUG_OFF                        00003FFF
_DEBUG_ON                         000037FF
_DEVID1                           00002006
_FOSC_EXTRC                       00003FFF
_FOSC_HS                          00003FFE
_FOSC_LP                          00003FFC
_FOSC_XT                          00003FFD
_HS_OSC                           00003FFE
_IDLOC0                           00002000
_IDLOC1                           00002001
_IDLOC2                           00002002
_IDLOC3                           00002003
_LP_OSC                           00003FFC
_LVP_OFF                          00003F7F
_LVP_ON                           00003FFF
_PWRTE_OFF                        00003FFF
_PWRTE_ON                         00003FF7
_RC_OSC                           00003FFF
_WDTE_OFF                         00003FFB
_WDTE_ON                          00003FFF
_WDT_OFF                          00003FFB
_WDT_ON                           00003FFF
_WRT_1FOURTH                      00003BFF
_WRT_256                          00003DFF
_WRT_HALF                         000039FF
_WRT_OFF                          00003FFF
_XT_OSC                           00003FFD
__16F877A                         00000001
__DEBUG                           1
caracter                          00000033
cont1                             00000031
cont1M                            00000036
cont2                             00000032
cont2M                            00000035
loop1                             000000EB
loop1MENU                         000000C8
loop2                             000000ED
loop2MENU                         000000CA
numTecla                          00000030


MEMORY USAGE MAP ('X' = Used,  '-' = Unused)

0000 : X----XXXXXXXXXXX XXXXXXXXXXXXXXXX XXXXXXXXXXXXXXXX XXXXXXXXXXXXXXXX
0040 : XXXXXXXXXXXXXXXX XXXXXXXXXXXXXXXX XXXXXXXXXXXXXXXX XXXXXXXXXXXXXXXX
0080 : XXXXXXXXXXXXXXXX XXXXXXXXXXXXXXXX XXXXXXXXXXXXXXXX XXXXXXXXXXXXXXXX
MPASM  5.51                    PRACTICA 9.ASM   4-8-2018  18:46:13         PAGE 45


MEMORY USAGE MAP ('X' = Used,  '-' = Unused)


00C0 : XXXXXXXXXXXXXXXX XXXXXXXXXXXXXXXX XXXXXXXXXXXXXXXX XXXXXXXXXXXXXXXX
0100 : XXXXXXXXXXXXXXXX XXXXXXXXXXXXXXXX XXXXXXXXXXXXXXXX XXXXXXXXXXXXXXXX
0140 : XXXXXXXXXXXXXXXX XXXXXXXXXXXXXXXX XXXXXXXXXXXXXXXX XXXXXXXXXXXXXXXX
0180 : XXXXXXXXXXXXXXXX XXXXXXXXXXXXXXXX XXXXXXXXXXXXXXXX XXXXXXXXXXXXXXXX
01C0 : XXXXXXXXXXXXXXXX XXXXXXXXXXXXXXXX XXXXXXXXXXXXXXXX XXXXXXXXXXXXXXXX
0200 : XXXXXXXXXXXXXXXX XXXXXXXXXXXXXXXX XXXXXXXXXXXXXXXX XXXXXXXXXXXXXXXX
0240 : XXXXXXXXXXXXXXXX XXXXXXXXXXXXXXXX XXXXXXXXXXXXXXXX XXXXXXXXXXXXXXXX
0280 : XXXXXXXXXXXXXXXX XXXXXXXXXXXXXXXX XXXXXXXXXXXXXXXX XXXXXXXXXXXXXXXX
02C0 : XXXXXXXXXXXXXXXX XXXXXXXXXXXXXXXX XXXXXXXXXXXXXXXX XXXXXXXXXXXXXXXX
0300 : XXXXXXXXXXXXXXXX XXXXXXXXXXXXXXXX XXXXXXXXXXXXXXXX XXXXXXXXXXXXXXXX
0340 : XXXXXXXXXXXXXXXX XXXXXXXXXXXXXXXX XXXXXXXXXXXXXXXX XXXXXXXXXXXXXXXX
0380 : XXXXXXXXXXXXXXXX XXXXXXXXXXXXXXXX XXXXXXXXXXXXXXXX XXXXXXXXXXXXXXXX
03C0 : XXXXXXXXXXXXXXXX XXXXXXXXXXXXXXXX XXXXXXXXXXXXXXXX XXXXXXXXXXXXXXXX
0400 : XXXXXXXXXXXXXXXX XXXXXXXXXXXXXXXX XXXXXXXXXXXXXXXX XXXXXXXXXXXXXXXX
0440 : XXXXXXXXXXXXXXXX XXXXXXXXXXXXXXXX XXXXXXXXXXXXXXXX XXXXXXXXXXXXXXXX
0480 : XXXXXXXXXXXXXXXX XXXXXXXXXXXXXXXX XXXXXXXXXXXXXXXX XXX-------------
2000 : -------X-------- ---------------- ---------------- ----------------

All other memory blocks unused.

Program Memory Words Used:  1199
Program Memory Words Free:  6993


Errors   :     0
Warnings :     2 reported,     0 suppressed
Messages :     5 reported,     0 suppressed

